(dp1
S'layout'
p2
(ilayout
Layout
p3
(dp4
S'capsules'
p5
(lp6
(I8
I4
tp7
a(I22
I8
tp8
a(I11
I9
tp9
a(I25
I13
tp10
asS'numGhosts'
p11
I4
sS'food'
p12
(igame
Grid
p13
(dp14
S'CELLS_PER_INT'
p15
I30
sS'width'
p16
I34
sS'data'
p17
(lp18
(lp19
I00
aI00
aI00
aI00
aI00
aI00
aI00
aI00
aI00
aI00
aI00
aI00
aI00
aI00
aI00
aI00
aI00
aI00
aa(lp20
I00
aI00
aI00
aI00
aI00
aI00
aI00
aI00
aI00
aI00
aI00
aI00
aI00
aI00
aI00
aI00
aI00
aI00
aa(lp21
I00
aI00
aI00
aI00
aI00
aI00
aI00
aI00
aI00
aI00
aI00
aI00
aI00
aI00
aI00
aI00
aI00
aI00
aa(lp22
I00
aI00
aI00
aI00
aI00
aI00
aI00
aI00
aI00
aI00
aI01
aI01
aI01
aI01
aI01
aI00
aI00
aI00
aa(lp23
I00
aI00
aI00
aI00
aI00
aI00
aI00
aI00
aI00
aI00
aI00
aI00
aI01
aI00
aI00
aI00
aI00
aI00
aa(lp24
I00
aI00
aI00
aI00
aI00
aI00
aI00
aI00
aI00
aI00
aI00
aI00
aI00
aI00
aI01
aI00
aI00
aI00
aa(lp25
I00
aI00
aI00
aI00
aI00
aI00
aI00
aI00
aI00
aI00
aI00
aI00
aI00
aI00
aI00
aI00
aI00
aI00
aa(lp26
I00
aI01
aI00
aI01
aI00
aI00
aI01
aI00
aI01
aI00
aI01
aI01
aI00
aI00
aI00
aI00
aI01
aI00
aa(lp27
I00
aI01
aI00
aI01
aI00
aI00
aI01
aI00
aI01
aI00
aI00
aI00
aI00
aI00
aI00
aI00
aI00
aI00
aa(lp28
I00
aI00
aI00
aI01
aI00
aI00
aI00
aI00
aI00
aI00
aI00
aI00
aI00
aI00
aI00
aI00
aI00
aI00
aa(lp29
I00
aI01
aI00
aI00
aI00
aI00
aI00
aI00
aI00
aI01
aI00
aI00
aI01
aI00
aI00
aI00
aI00
aI00
aa(lp30
I00
aI01
aI00
aI00
aI00
aI01
aI00
aI00
aI00
aI00
aI00
aI00
aI00
aI00
aI00
aI00
aI00
aI00
aa(lp31
I00
aI00
aI00
aI00
aI00
aI00
aI00
aI00
aI01
aI00
aI00
aI01
aI00
aI00
aI00
aI00
aI00
aI00
aa(lp32
I00
aI01
aI01
aI00
aI00
aI00
aI00
aI00
aI00
aI00
aI01
aI00
aI00
aI00
aI00
aI00
aI01
aI00
aa(lp33
I00
aI00
aI00
aI00
aI00
aI00
aI00
aI00
aI00
aI00
aI00
aI00
aI00
aI00
aI00
aI00
aI00
aI00
aa(lp34
I00
aI00
aI00
aI00
aI00
aI00
aI00
aI00
aI00
aI00
aI00
aI00
aI00
aI00
aI00
aI00
aI00
aI00
aa(lp35
I00
aI00
aI00
aI00
aI00
aI00
aI00
aI00
aI00
aI00
aI00
aI00
aI00
aI00
aI00
aI00
aI00
aI00
aa(lp36
I00
aI00
aI00
aI00
aI00
aI00
aI00
aI00
aI00
aI00
aI00
aI00
aI00
aI00
aI00
aI00
aI00
aI00
aa(lp37
I00
aI00
aI00
aI00
aI00
aI00
aI00
aI00
aI00
aI00
aI00
aI00
aI00
aI00
aI00
aI00
aI00
aI00
aa(lp38
I00
aI00
aI00
aI00
aI00
aI00
aI00
aI00
aI00
aI00
aI00
aI00
aI00
aI00
aI00
aI00
aI00
aI00
aa(lp39
I00
aI01
aI00
aI00
aI00
aI00
aI00
aI01
aI00
aI00
aI00
aI00
aI00
aI00
aI00
aI01
aI01
aI00
aa(lp40
I00
aI00
aI00
aI00
aI00
aI00
aI01
aI00
aI00
aI01
aI00
aI00
aI00
aI00
aI00
aI00
aI00
aI00
aa(lp41
I00
aI00
aI00
aI00
aI00
aI00
aI00
aI00
aI00
aI00
aI00
aI00
aI01
aI00
aI00
aI00
aI01
aI00
aa(lp42
I00
aI00
aI00
aI00
aI00
aI01
aI00
aI00
aI01
aI00
aI00
aI00
aI00
aI00
aI00
aI00
aI01
aI00
aa(lp43
I00
aI00
aI00
aI00
aI00
aI00
aI00
aI00
aI00
aI00
aI00
aI00
aI00
aI00
aI01
aI00
aI00
aI00
aa(lp44
I00
aI00
aI00
aI00
aI00
aI00
aI00
aI00
aI00
aI01
aI00
aI01
aI00
aI00
aI01
aI00
aI01
aI00
aa(lp45
I00
aI01
aI00
aI00
aI00
aI00
aI01
aI01
aI00
aI01
aI00
aI01
aI00
aI00
aI01
aI00
aI01
aI00
aa(lp46
I00
aI00
aI00
aI00
aI00
aI00
aI00
aI00
aI00
aI00
aI00
aI00
aI00
aI00
aI00
aI00
aI00
aI00
aa(lp47
I00
aI00
aI00
aI01
aI00
aI00
aI00
aI00
aI00
aI00
aI00
aI00
aI00
aI00
aI00
aI00
aI00
aI00
aa(lp48
I00
aI00
aI00
aI00
aI00
aI01
aI00
aI00
aI00
aI00
aI00
aI00
aI00
aI00
aI00
aI00
aI00
aI00
aa(lp49
I00
aI00
aI00
aI01
aI01
aI01
aI01
aI01
aI00
aI00
aI00
aI00
aI00
aI00
aI00
aI00
aI00
aI00
aa(lp50
I00
aI00
aI00
aI00
aI00
aI00
aI00
aI00
aI00
aI00
aI00
aI00
aI00
aI00
aI00
aI00
aI00
aI00
aa(lp51
I00
aI00
aI00
aI00
aI00
aI00
aI00
aI00
aI00
aI00
aI00
aI00
aI00
aI00
aI00
aI00
aI00
aI00
aa(lp52
I00
aI00
aI00
aI00
aI00
aI00
aI00
aI00
aI00
aI00
aI00
aI00
aI00
aI00
aI00
aI00
aI00
aI00
aasS'height'
p53
I18
sbsS'agentPositions'
p54
(lp55
(I00
(I1
I2
tp56
tp57
a(I00
(I32
I15
tp58
tp59
a(I00
(I1
I1
tp60
tp61
a(I00
(I32
I16
tp62
tp63
asg53
I18
sg16
I34
sS'walls'
p64
(igame
Grid
p65
(dp66
g15
I30
sg16
I34
sg17
(lp67
(lp68
I01
aI01
aI01
aI01
aI01
aI01
aI01
aI01
aI01
aI01
aI01
aI01
aI01
aI01
aI01
aI01
aI01
aI01
aa(lp69
I01
aI00
aI00
aI00
aI00
aI00
aI00
aI00
aI00
aI00
aI00
aI00
aI00
aI00
aI00
aI00
aI00
aI01
aa(lp70
I01
aI01
aI01
aI01
aI01
aI01
aI01
aI01
aI01
aI01
aI01
aI01
aI01
aI01
aI01
aI01
aI00
aI01
aa(lp71
I01
aI00
aI00
aI00
aI00
aI00
aI00
aI01
aI00
aI00
aI00
aI00
aI00
aI00
aI00
aI01
aI00
aI01
aa(lp72
I01
aI01
aI01
aI01
aI01
aI00
aI00
aI00
aI00
aI01
aI01
aI01
aI00
aI01
aI00
aI00
aI00
aI01
aa(lp73
I01
aI00
aI00
aI00
aI00
aI00
aI00
aI01
aI00
aI00
aI00
aI00
aI00
aI00
aI00
aI01
aI00
aI01
aa(lp74
I01
aI01
aI01
aI01
aI01
aI01
aI01
aI01
aI01
aI01
aI01
aI01
aI00
aI01
aI01
aI01
aI00
aI01
aa(lp75
I01
aI00
aI01
aI00
aI01
aI00
aI00
aI00
aI00
aI01
aI00
aI00
aI00
aI00
aI00
aI01
aI00
aI01
aa(lp76
I01
aI00
aI00
aI00
aI00
aI00
aI00
aI01
aI00
aI00
aI00
aI00
aI01
aI00
aI00
aI01
aI00
aI01
aa(lp77
I01
aI01
aI01
aI00
aI01
aI01
aI01
aI01
aI01
aI01
aI01
aI01
aI01
aI00
aI00
aI01
aI00
aI01
aa(lp78
I01
aI00
aI01
aI00
aI00
aI00
aI00
aI00
aI01
aI00
aI01
aI00
aI00
aI00
aI00
aI01
aI00
aI01
aa(lp79
I01
aI00
aI00
aI00
aI01
aI00
aI01
aI00
aI01
aI00
aI00
aI00
aI01
aI00
aI00
aI01
aI00
aI01
aa(lp80
I01
aI01
aI01
aI00
aI01
aI01
aI01
aI00
aI00
aI00
aI01
aI00
aI01
aI00
aI00
aI00
aI00
aI01
aa(lp81
I01
aI00
aI00
aI00
aI00
aI00
aI00
aI00
aI01
aI00
aI00
aI00
aI00
aI00
aI00
aI01
aI00
aI01
aa(lp82
I01
aI01
aI01
aI00
aI01
aI01
aI01
aI00
aI01
aI01
aI01
aI01
aI00
aI01
aI01
aI01
aI01
aI01
aa(lp83
I01
aI00
aI00
aI00
aI00
aI00
aI00
aI00
aI00
aI00
aI00
aI00
aI00
aI00
aI00
aI00
aI00
aI01
aa(lp84
I01
aI00
aI00
aI00
aI00
aI00
aI00
aI00
aI00
aI00
aI00
aI00
aI00
aI00
aI01
aI00
aI00
aI01
aa(lp85
I01
aI00
aI00
aI01
aI00
aI00
aI00
aI00
aI00
aI00
aI00
aI00
aI00
aI00
aI00
aI00
aI00
aI01
aa(lp86
I01
aI00
aI00
aI00
aI00
aI00
aI00
aI00
aI00
aI00
aI00
aI00
aI00
aI00
aI00
aI00
aI00
aI01
aa(lp87
I01
aI01
aI01
aI01
aI01
aI00
aI01
aI01
aI01
aI01
aI00
aI01
aI01
aI01
aI00
aI01
aI01
aI01
aa(lp88
I01
aI00
aI01
aI00
aI00
aI00
aI00
aI00
aI00
aI01
aI00
aI00
aI00
aI00
aI00
aI00
aI00
aI01
aa(lp89
I01
aI00
aI00
aI00
aI00
aI01
aI00
aI01
aI00
aI00
aI00
aI01
aI01
aI01
aI00
aI01
aI01
aI01
aa(lp90
I01
aI00
aI01
aI00
aI00
aI01
aI00
aI00
aI00
aI01
aI00
aI01
aI00
aI01
aI00
aI00
aI00
aI01
aa(lp91
I01
aI00
aI01
aI00
aI00
aI00
aI00
aI01
aI00
aI01
aI00
aI00
aI00
aI00
aI00
aI01
aI00
aI01
aa(lp92
I01
aI00
aI01
aI00
aI00
aI01
aI01
aI01
aI01
aI01
aI01
aI01
aI01
aI01
aI00
aI01
aI01
aI01
aa(lp93
I01
aI00
aI01
aI00
aI00
aI01
aI00
aI00
aI00
aI00
aI01
aI00
aI00
aI00
aI00
aI00
aI00
aI01
aa(lp94
I01
aI00
aI01
aI00
aI00
aI00
aI00
aI00
aI01
aI00
aI00
aI00
aI00
aI01
aI00
aI01
aI00
aI01
aa(lp95
I01
aI00
aI01
aI01
aI01
aI00
aI01
aI01
aI01
aI01
aI01
aI01
aI01
aI01
aI01
aI01
aI01
aI01
aa(lp96
I01
aI00
aI01
aI00
aI00
aI00
aI00
aI00
aI00
aI00
aI01
aI00
aI00
aI00
aI00
aI00
aI00
aI01
aa(lp97
I01
aI00
aI00
aI00
aI01
aI00
aI01
aI01
aI01
aI00
aI00
aI00
aI00
aI01
aI01
aI01
aI01
aI01
aa(lp98
I01
aI00
aI01
aI00
aI00
aI00
aI00
aI00
aI00
aI00
aI01
aI00
aI00
aI00
aI00
aI00
aI00
aI01
aa(lp99
I01
aI00
aI01
aI01
aI01
aI01
aI01
aI01
aI01
aI01
aI01
aI01
aI01
aI01
aI01
aI01
aI01
aI01
aa(lp100
I01
aI00
aI00
aI00
aI00
aI00
aI00
aI00
aI00
aI00
aI00
aI00
aI00
aI00
aI00
aI00
aI00
aI01
aa(lp101
I01
aI01
aI01
aI01
aI01
aI01
aI01
aI01
aI01
aI01
aI01
aI01
aI01
aI01
aI01
aI01
aI01
aI01
aasg53
I18
sbsS'layoutText'
p102
(lp103
S'%%%%%%%%%%%%%%%%%%%%%%%%%%%%%%%%%%'
p104
aS'%      .     .%    %.%..%..% % %4%'
p105
aS'% %% %%%%%%% %%    %.% %% %% % %2%'
p106
aS'% %. .%       % %       ...% % % %'
p107
aS'% %.% %       %    % %% %o%% % % %'
p108
aS'% %..   %%.%%      % %. %  %   % %'
p109
aS'% %.% %. %  . %    % %% %..%   % %'
p110
aS'% %.% %. %% %.%         %% %% %% %'
p111
aS'% % % %% %.o  %    %%.%%%..%   % %'
p112
aS'% %   %..%%%.%%    %  o.% %% % % %'
p113
aS'% %% %% %%         %.% %% .% %.% %'
p114
aS'% %   %..% %% %    % .  % .% %.% %'
p115
aS'% %   %  % .% %      %%.%%   ..% %'
p116
aS'% % % %%o% %% %    %       % %.% %'
p117
aS'% % % %...       % %       %. .% %'
p118
aS'%1% % %% %% %.%    %% %%%%%%% %% %'
p119
aS'%3% % %..%..%.%    %.     .      %'
p120
aS'%%%%%%%%%%%%%%%%%%%%%%%%%%%%%%%%%%'
p121
asbsS'blueTeamName'
p122
S'SuperSquad'
p123
sS'actions'
p124
(lp125
(I0
S'North'
p126
tp127
a(I1
S'South'
p128
tp129
a(I2
g126
tp130
a(I3
g128
tp131
a(I0
g126
tp132
a(I1
g128
tp133
a(I2
g126
tp134
a(I3
g128
tp135
a(I0
g126
tp136
a(I1
g128
tp137
a(I2
g126
tp138
a(I3
g128
tp139
a(I0
g126
tp140
a(I1
g128
tp141
a(I2
g126
tp142
a(I3
g128
tp143
a(I0
g126
tp144
a(I1
g128
tp145
a(I2
g126
tp146
a(I3
g128
tp147
a(I0
g126
tp148
a(I1
g128
tp149
a(I2
g126
tp150
a(I3
g128
tp151
a(I0
g126
tp152
a(I1
g128
tp153
a(I2
g126
tp154
a(I3
g128
tp155
a(I0
g126
tp156
a(I1
g128
tp157
a(I2
g126
tp158
a(I3
g128
tp159
a(I0
g126
tp160
a(I1
g128
tp161
a(I2
g126
tp162
a(I3
g128
tp163
a(I0
g126
tp164
a(I1
g128
tp165
a(I2
g126
tp166
a(I3
g128
tp167
a(I0
g126
tp168
a(I1
g128
tp169
a(I2
g126
tp170
a(I3
g128
tp171
a(I0
g126
tp172
a(I1
g128
tp173
a(I2
g126
tp174
a(I3
g128
tp175
a(I0
g126
tp176
a(I1
g128
tp177
a(I2
g126
tp178
a(I3
g128
tp179
a(I0
g126
tp180
a(I1
g128
tp181
a(I2
g126
tp182
a(I3
g128
tp183
a(I0
S'East'
p184
tp185
a(I1
S'West'
p186
tp187
a(I2
g126
tp188
a(I3
g128
tp189
a(I0
g184
tp190
a(I1
g186
tp191
a(I2
g184
tp192
a(I3
g186
tp193
a(I0
g184
tp194
a(I1
g186
tp195
a(I2
g184
tp196
a(I3
g186
tp197
a(I0
g184
tp198
a(I1
g186
tp199
a(I2
g184
tp200
a(I3
g186
tp201
a(I0
g184
tp202
a(I1
g186
tp203
a(I2
g184
tp204
a(I3
g186
tp205
a(I0
g184
tp206
a(I1
g186
tp207
a(I2
g184
tp208
a(I3
g186
tp209
a(I0
g184
tp210
a(I1
g186
tp211
a(I2
g184
tp212
a(I3
g186
tp213
a(I0
g184
tp214
a(I1
g186
tp215
a(I2
g184
tp216
a(I3
g186
tp217
a(I0
g184
tp218
a(I1
g186
tp219
a(I2
g184
tp220
a(I3
g186
tp221
a(I0
g184
tp222
a(I1
g186
tp223
a(I2
g184
tp224
a(I3
g186
tp225
a(I0
g184
tp226
a(I1
g186
tp227
a(I2
g184
tp228
a(I3
g186
tp229
a(I0
g128
tp230
a(I1
g126
tp231
a(I2
g184
tp232
a(I3
g186
tp233
a(I0
g128
tp234
a(I1
g126
tp235
a(I2
g128
tp236
a(I3
g186
tp237
a(I0
g184
tp238
a(I1
g186
tp239
a(I2
g128
tp240
a(I3
g184
tp241
a(I0
g128
tp242
a(I1
g126
tp243
a(I2
g184
tp244
a(I3
g126
tp245
a(I0
g128
tp246
a(I1
g126
tp247
a(I2
g128
tp248
a(I3
g126
tp249
a(I0
g184
tp250
a(I1
g186
tp251
a(I2
g128
tp252
a(I3
g186
tp253
a(I0
g184
tp254
a(I1
g186
tp255
a(I2
g184
tp256
a(I3
g126
tp257
a(I0
g184
tp258
a(I1
g128
tp259
a(I2
g184
tp260
a(I3
g184
tp261
a(I0
g184
tp262
a(I1
g186
tp263
a(I2
g184
tp264
a(I3
g128
tp265
a(I0
g126
tp266
a(I1
g186
tp267
a(I2
g128
tp268
a(I3
g128
tp269
a(I0
g184
tp270
a(I1
g186
tp271
a(I2
g128
tp272
a(I3
g128
tp273
a(I0
g126
tp274
a(I1
g128
tp275
a(I2
g128
tp276
a(I3
g184
tp277
a(I0
g184
tp278
a(I1
g186
tp279
a(I2
g184
tp280
a(I3
g184
tp281
a(I0
g184
tp282
a(I1
g186
tp283
a(I2
g126
tp284
a(I3
g184
tp285
a(I0
g126
tp286
a(I1
g128
tp287
a(I2
g184
tp288
a(I3
g184
tp289
a(I0
g126
tp290
a(I1
g128
tp291
a(I2
g184
tp292
a(I3
g184
tp293
a(I0
g128
tp294
a(I1
g126
tp295
a(I2
g184
tp296
a(I3
g184
tp297
a(I0
g128
tp298
a(I1
g126
tp299
a(I2
g184
tp300
a(I3
g184
tp301
a(I0
g184
tp302
a(I1
g186
tp303
a(I2
g128
tp304
a(I3
g184
tp305
a(I0
g184
tp306
a(I1
g186
tp307
a(I2
g128
tp308
a(I3
g126
tp309
a(I0
g184
tp310
a(I1
g128
tp311
a(I2
g184
tp312
a(I3
g126
tp313
a(I0
g184
tp314
a(I1
g128
tp315
a(I2
g184
tp316
a(I3
g184
tp317
a(I0
g184
tp318
a(I1
g186
tp319
a(I2
g186
tp320
a(I3
g126
tp321
a(I0
g184
tp322
a(I1
g184
tp323
a(I2
g186
tp324
a(I3
g126
tp325
a(I0
g186
tp326
a(I1
g126
tp327
a(I2
g186
tp328
a(I3
g126
tp329
a(I0
g126
tp330
a(I1
g126
tp331
a(I2
g128
tp332
a(I3
g126
tp333
a(I0
g126
tp334
a(I1
g186
tp335
a(I2
g128
tp336
a(I3
g126
tp337
a(I0
g184
tp338
a(I1
g186
tp339
a(I2
g184
tp340
a(I3
g126
tp341
a(I0
g186
tp342
a(I1
g186
tp343
a(I2
g184
tp344
a(I3
g186
tp345
a(I0
g128
tp346
a(I1
g186
tp347
a(I2
g184
tp348
a(I3
g186
tp349
a(I0
g128
tp350
a(I1
g184
tp351
a(I2
g128
tp352
a(I3
g128
tp353
a(I0
g186
tp354
a(I1
g126
tp355
a(I2
g128
tp356
a(I3
g128
tp357
a(I0
g186
tp358
a(I1
g126
tp359
a(I2
g184
tp360
a(I3
g128
tp361
a(I0
g186
tp362
a(I1
g126
tp363
a(I2
g184
tp364
a(I3
g128
tp365
a(I0
g126
tp366
a(I1
g186
tp367
a(I2
g184
tp368
a(I3
g186
tp369
a(I0
g126
tp370
a(I1
g126
tp371
a(I2
g126
tp372
a(I3
g184
tp373
a(I0
g184
tp374
a(I1
g126
tp375
a(I2
g126
tp376
a(I3
g186
tp377
a(I0
g186
tp378
a(I1
g184
tp379
a(I2
g126
tp380
a(I3
g186
tp381
a(I0
g128
tp382
a(I1
g126
tp383
a(I2
g186
tp384
a(I3
g126
tp385
a(I0
g128
tp386
a(I1
g126
tp387
a(I2
g126
tp388
a(I3
g186
tp389
a(I0
g184
tp390
a(I1
g186
tp391
a(I2
g126
tp392
a(I3
g126
tp393
a(I0
g128
tp394
a(I1
g126
tp395
a(I2
g184
tp396
a(I3
g126
tp397
a(I0
g128
tp398
a(I1
g126
tp399
a(I2
g126
tp400
a(I3
g126
tp401
a(I0
g186
tp402
a(I1
g186
tp403
a(I2
g126
tp404
a(I3
g184
tp405
a(I0
g184
tp406
a(I1
g186
tp407
a(I2
g186
tp408
a(I3
g126
tp409
a(I0
g128
tp410
a(I1
g186
tp411
a(I2
g126
tp412
a(I3
g126
tp413
a(I0
g128
tp414
a(I1
g186
tp415
a(I2
g184
tp416
a(I3
g186
tp417
a(I0
g186
tp418
a(I1
g128
tp419
a(I2
g128
tp420
a(I3
g126
tp421
a(I0
g186
tp422
a(I1
g128
tp423
a(I2
g128
tp424
a(I3
g184
tp425
a(I0
g128
tp426
a(I1
g126
tp427
a(I2
g128
tp428
a(I3
g128
tp429
a(I0
g128
tp430
a(I1
g126
tp431
a(I2
g186
tp432
a(I3
g128
tp433
a(I0
g186
tp434
a(I1
g126
tp435
a(I2
g128
tp436
a(I3
g128
tp437
a(I0
g128
tp438
a(I1
g126
tp439
a(I2
g128
tp440
a(I3
g186
tp441
a(I0
g128
tp442
a(I1
g184
tp443
a(I2
g128
tp444
a(I3
g128
tp445
a(I0
g128
tp446
a(I1
g184
tp447
a(I2
g184
tp448
a(I3
g128
tp449
a(I0
g128
tp450
a(I1
g186
tp451
a(I2
g128
tp452
a(I3
g184
tp453
a(I0
g184
tp454
a(I1
g126
tp455
a(I2
g184
tp456
a(I3
g128
tp457
a(I0
g128
tp458
a(I1
g126
tp459
a(I2
g184
tp460
a(I3
g128
tp461
a(I0
g128
tp462
a(I1
g184
tp463
a(I2
g184
tp464
a(I3
g184
tp465
a(I0
g128
tp466
a(I1
g184
tp467
a(I2
g184
tp468
a(I3
g184
tp469
a(I0
g186
tp470
a(I1
g184
tp471
a(I2
g186
tp472
a(I3
g184
tp473
a(I0
g184
tp474
a(I1
g184
tp475
a(I2
g126
tp476
a(I3
g184
tp477
a(I0
g184
tp478
a(I1
g184
tp479
a(I2
g126
tp480
a(I3
g126
tp481
a(I0
g184
tp482
a(I1
g184
tp483
a(I2
g126
tp484
a(I3
g126
tp485
a(I0
g184
tp486
a(I1
g184
tp487
a(I2
g126
tp488
a(I3
g126
tp489
a(I0
g184
tp490
a(I1
g184
tp491
a(I2
g126
tp492
a(I3
g126
tp493
a(I0
g184
tp494
a(I1
g184
tp495
a(I2
g126
tp496
a(I3
g186
tp497
a(I0
g184
tp498
a(I1
g186
tp499
a(I2
g126
tp500
a(I3
g186
tp501
a(I0
g184
tp502
a(I1
g128
tp503
a(I2
g126
tp504
a(I3
g128
tp505
a(I0
g184
tp506
a(I1
g128
tp507
a(I2
g126
tp508
a(I3
g128
tp509
a(I0
g126
tp510
a(I1
g186
tp511
a(I2
g126
tp512
a(I3
g128
tp513
a(I0
g126
tp514
a(I1
g128
tp515
a(I2
g126
tp516
a(I3
g128
tp517
a(I0
g186
tp518
a(I1
g186
tp519
a(I2
g126
tp520
a(I3
g128
tp521
a(I0
g184
tp522
a(I1
g128
tp523
a(I2
g126
tp524
a(I3
g128
tp525
a(I0
g184
tp526
a(I1
g128
tp527
a(I2
g126
tp528
a(I3
g184
tp529
a(I0
g126
tp530
asS'length'
p531
I1200
sS'agents'
p532
(lp533
(igame
Agent
p534
(dp535
S'index'
p536
I0
sba(igame
Agent
p537
(dp538
g536
I0
sba(igame
Agent
p539
(dp540
g536
I0
sba(igame
Agent
p541
(dp542
g536
I0
sbasS'redTeamName'
p543
S'SoStupid'
p544
s.