(dp1
S'layout'
p2
(ilayout
Layout
p3
(dp4
S'capsules'
p5
(lp6
(I23
I4
tp7
a(I25
I8
tp8
a(I8
I9
tp9
a(I10
I13
tp10
asS'numGhosts'
p11
I4
sS'food'
p12
(igame
Grid
p13
(dp14
S'CELLS_PER_INT'
p15
I30
sS'width'
p16
I34
sS'data'
p17
(lp18
(lp19
I00
aI00
aI00
aI00
aI00
aI00
aI00
aI00
aI00
aI00
aI00
aI00
aI00
aI00
aI00
aI00
aI00
aI00
aa(lp20
I00
aI00
aI00
aI00
aI00
aI00
aI00
aI00
aI01
aI00
aI00
aI00
aI00
aI01
aI01
aI00
aI01
aI00
aa(lp21
I00
aI00
aI00
aI00
aI00
aI00
aI00
aI00
aI00
aI00
aI00
aI00
aI00
aI00
aI00
aI00
aI01
aI00
aa(lp22
I00
aI00
aI00
aI00
aI00
aI00
aI00
aI00
aI00
aI00
aI00
aI00
aI01
aI00
aI00
aI00
aI01
aI00
aa(lp23
I00
aI00
aI00
aI00
aI00
aI01
aI00
aI00
aI01
aI00
aI00
aI00
aI00
aI00
aI00
aI00
aI00
aI00
aa(lp24
I00
aI00
aI00
aI00
aI00
aI00
aI00
aI00
aI00
aI00
aI00
aI00
aI00
aI00
aI00
aI00
aI00
aI00
aa(lp25
I00
aI01
aI00
aI00
aI00
aI00
aI00
aI00
aI00
aI00
aI01
aI01
aI00
aI00
aI00
aI00
aI00
aI00
aa(lp26
I00
aI00
aI00
aI00
aI00
aI00
aI00
aI00
aI00
aI00
aI00
aI00
aI00
aI00
aI01
aI00
aI00
aI00
aa(lp27
I00
aI00
aI00
aI00
aI00
aI00
aI00
aI00
aI00
aI00
aI00
aI00
aI00
aI00
aI00
aI00
aI01
aI00
aa(lp28
I00
aI00
aI00
aI00
aI01
aI00
aI00
aI00
aI00
aI00
aI01
aI00
aI00
aI00
aI00
aI00
aI01
aI00
aa(lp29
I00
aI00
aI00
aI00
aI00
aI00
aI00
aI00
aI00
aI00
aI01
aI00
aI00
aI00
aI00
aI00
aI00
aI00
aa(lp30
I00
aI01
aI01
aI00
aI00
aI00
aI00
aI01
aI00
aI00
aI00
aI01
aI00
aI00
aI00
aI00
aI01
aI00
aa(lp31
I00
aI00
aI00
aI00
aI00
aI00
aI00
aI00
aI00
aI00
aI00
aI00
aI00
aI00
aI01
aI00
aI01
aI00
aa(lp32
I00
aI01
aI00
aI00
aI00
aI00
aI00
aI00
aI00
aI00
aI00
aI00
aI00
aI00
aI00
aI01
aI00
aI00
aa(lp33
I00
aI01
aI00
aI00
aI00
aI01
aI00
aI00
aI00
aI00
aI00
aI00
aI00
aI00
aI01
aI00
aI00
aI00
aa(lp34
I00
aI00
aI00
aI00
aI00
aI00
aI00
aI00
aI00
aI00
aI00
aI00
aI00
aI00
aI00
aI00
aI00
aI00
aa(lp35
I00
aI00
aI00
aI00
aI00
aI00
aI00
aI00
aI00
aI00
aI00
aI00
aI00
aI00
aI00
aI00
aI00
aI00
aa(lp36
I00
aI00
aI00
aI00
aI00
aI00
aI00
aI00
aI00
aI00
aI00
aI00
aI00
aI00
aI00
aI00
aI00
aI00
aa(lp37
I00
aI00
aI00
aI00
aI00
aI00
aI00
aI00
aI00
aI00
aI00
aI00
aI00
aI00
aI00
aI00
aI00
aI00
aa(lp38
I00
aI00
aI00
aI01
aI00
aI00
aI00
aI00
aI00
aI00
aI00
aI00
aI01
aI00
aI00
aI00
aI01
aI00
aa(lp39
I00
aI00
aI01
aI00
aI00
aI00
aI00
aI00
aI00
aI00
aI00
aI00
aI00
aI00
aI00
aI00
aI01
aI00
aa(lp40
I00
aI01
aI00
aI01
aI00
aI00
aI00
aI00
aI00
aI00
aI00
aI00
aI00
aI00
aI00
aI00
aI00
aI00
aa(lp41
I00
aI01
aI00
aI00
aI00
aI00
aI01
aI00
aI00
aI00
aI01
aI00
aI00
aI00
aI00
aI01
aI01
aI00
aa(lp42
I00
aI00
aI00
aI00
aI00
aI00
aI00
aI01
aI00
aI00
aI00
aI00
aI00
aI00
aI00
aI00
aI00
aI00
aa(lp43
I00
aI01
aI00
aI00
aI00
aI00
aI00
aI01
aI00
aI00
aI00
aI00
aI00
aI01
aI00
aI00
aI00
aI00
aa(lp44
I00
aI01
aI00
aI00
aI00
aI00
aI00
aI00
aI00
aI00
aI00
aI00
aI00
aI00
aI00
aI00
aI00
aI00
aa(lp45
I00
aI00
aI00
aI01
aI00
aI00
aI00
aI00
aI00
aI00
aI00
aI00
aI00
aI00
aI00
aI00
aI00
aI00
aa(lp46
I00
aI00
aI00
aI00
aI00
aI00
aI01
aI01
aI00
aI00
aI00
aI00
aI00
aI00
aI00
aI00
aI01
aI00
aa(lp47
I00
aI00
aI00
aI00
aI00
aI00
aI00
aI00
aI00
aI00
aI00
aI00
aI00
aI00
aI00
aI00
aI00
aI00
aa(lp48
I00
aI00
aI00
aI00
aI00
aI00
aI00
aI00
aI00
aI01
aI00
aI00
aI01
aI00
aI00
aI00
aI00
aI00
aa(lp49
I00
aI01
aI00
aI00
aI00
aI01
aI00
aI00
aI00
aI00
aI00
aI00
aI00
aI00
aI00
aI00
aI00
aI00
aa(lp50
I00
aI01
aI00
aI00
aI00
aI00
aI00
aI00
aI00
aI00
aI00
aI00
aI00
aI00
aI00
aI00
aI00
aI00
aa(lp51
I00
aI01
aI00
aI01
aI01
aI00
aI00
aI00
aI00
aI01
aI00
aI00
aI00
aI00
aI00
aI00
aI00
aI00
aa(lp52
I00
aI00
aI00
aI00
aI00
aI00
aI00
aI00
aI00
aI00
aI00
aI00
aI00
aI00
aI00
aI00
aI00
aI00
aasS'height'
p53
I18
sbsS'agentPositions'
p54
(lp55
(I00
(I1
I2
tp56
tp57
a(I00
(I32
I15
tp58
tp59
a(I00
(I1
I1
tp60
tp61
a(I00
(I32
I16
tp62
tp63
asg53
I18
sg16
I34
sS'walls'
p64
(igame
Grid
p65
(dp66
g15
I30
sg16
I34
sg17
(lp67
(lp68
I01
aI01
aI01
aI01
aI01
aI01
aI01
aI01
aI01
aI01
aI01
aI01
aI01
aI01
aI01
aI01
aI01
aI01
aa(lp69
I01
aI00
aI00
aI00
aI00
aI00
aI00
aI00
aI00
aI00
aI00
aI00
aI00
aI00
aI00
aI01
aI00
aI01
aa(lp70
I01
aI01
aI01
aI01
aI01
aI01
aI01
aI01
aI01
aI01
aI01
aI01
aI00
aI01
aI01
aI01
aI00
aI01
aa(lp71
I01
aI00
aI00
aI00
aI00
aI00
aI00
aI00
aI00
aI00
aI00
aI00
aI00
aI00
aI00
aI01
aI00
aI01
aa(lp72
I01
aI00
aI00
aI00
aI01
aI00
aI00
aI01
aI00
aI01
aI00
aI00
aI01
aI00
aI00
aI00
aI00
aI01
aa(lp73
I01
aI01
aI00
aI01
aI01
aI01
aI01
aI01
aI01
aI01
aI01
aI01
aI01
aI00
aI00
aI01
aI00
aI01
aa(lp74
I01
aI00
aI00
aI01
aI00
aI00
aI00
aI00
aI00
aI00
aI00
aI00
aI01
aI00
aI00
aI01
aI00
aI01
aa(lp75
I01
aI00
aI00
aI01
aI00
aI01
aI01
aI01
aI01
aI01
aI01
aI01
aI01
aI00
aI00
aI01
aI00
aI01
aa(lp76
I01
aI00
aI00
aI00
aI00
aI00
aI00
aI00
aI00
aI00
aI00
aI00
aI01
aI00
aI00
aI01
aI00
aI01
aa(lp77
I01
aI00
aI00
aI01
aI00
aI00
aI00
aI00
aI00
aI00
aI00
aI00
aI00
aI00
aI00
aI01
aI00
aI01
aa(lp78
I01
aI01
aI01
aI01
aI01
aI01
aI01
aI01
aI01
aI01
aI00
aI01
aI01
aI00
aI00
aI01
aI01
aI01
aa(lp79
I01
aI00
aI00
aI00
aI00
aI00
aI00
aI00
aI00
aI00
aI00
aI00
aI00
aI00
aI00
aI01
aI00
aI01
aa(lp80
I01
aI01
aI01
aI01
aI01
aI01
aI01
aI01
aI01
aI01
aI01
aI01
aI00
aI01
aI00
aI01
aI00
aI01
aa(lp81
I01
aI00
aI00
aI00
aI00
aI00
aI00
aI01
aI00
aI00
aI01
aI00
aI00
aI01
aI00
aI00
aI00
aI01
aa(lp82
I01
aI00
aI01
aI00
aI01
aI00
aI00
aI01
aI00
aI00
aI00
aI00
aI00
aI01
aI00
aI01
aI00
aI01
aa(lp83
I01
aI01
aI01
aI00
aI01
aI01
aI00
aI00
aI00
aI01
aI01
aI00
aI00
aI00
aI00
aI01
aI00
aI01
aa(lp84
I01
aI00
aI00
aI00
aI00
aI00
aI00
aI01
aI00
aI00
aI00
aI00
aI00
aI01
aI00
aI00
aI00
aI01
aa(lp85
I01
aI00
aI00
aI00
aI01
aI00
aI00
aI00
aI00
aI00
aI01
aI00
aI00
aI00
aI00
aI00
aI00
aI01
aa(lp86
I01
aI00
aI01
aI00
aI00
aI00
aI00
aI01
aI01
aI00
aI00
aI00
aI01
aI01
aI00
aI01
aI01
aI01
aa(lp87
I01
aI00
aI01
aI00
aI01
aI00
aI00
aI00
aI00
aI00
aI01
aI00
aI00
aI01
aI00
aI01
aI00
aI01
aa(lp88
I01
aI00
aI00
aI00
aI01
aI00
aI00
aI01
aI00
aI00
aI01
aI00
aI00
aI00
aI00
aI00
aI00
aI01
aa(lp89
I01
aI00
aI01
aI00
aI01
aI00
aI01
aI01
aI01
aI01
aI01
aI01
aI01
aI01
aI01
aI01
aI01
aI01
aa(lp90
I01
aI00
aI01
aI00
aI00
aI00
aI00
aI00
aI00
aI00
aI00
aI00
aI00
aI00
aI00
aI00
aI00
aI01
aa(lp91
I01
aI01
aI01
aI00
aI00
aI01
aI01
aI00
aI01
aI01
aI01
aI01
aI01
aI01
aI01
aI01
aI01
aI01
aa(lp92
I01
aI00
aI01
aI00
aI00
aI00
aI00
aI00
aI00
aI00
aI00
aI00
aI00
aI00
aI01
aI00
aI00
aI01
aa(lp93
I01
aI00
aI01
aI00
aI00
aI01
aI00
aI00
aI00
aI00
aI00
aI00
aI00
aI00
aI00
aI00
aI00
aI01
aa(lp94
I01
aI00
aI01
aI00
aI00
aI01
aI01
aI01
aI01
aI01
aI01
aI01
aI01
aI00
aI01
aI00
aI00
aI01
aa(lp95
I01
aI00
aI01
aI00
aI00
aI01
aI00
aI00
aI00
aI00
aI00
aI00
aI00
aI00
aI01
aI00
aI00
aI01
aa(lp96
I01
aI00
aI01
aI00
aI00
aI01
aI01
aI01
aI01
aI01
aI01
aI01
aI01
aI01
aI01
aI00
aI01
aI01
aa(lp97
I01
aI00
aI00
aI00
aI00
aI01
aI00
aI00
aI01
aI00
aI01
aI00
aI00
aI01
aI00
aI00
aI00
aI01
aa(lp98
I01
aI00
aI01
aI00
aI00
aI00
aI00
aI00
aI00
aI00
aI00
aI00
aI00
aI00
aI00
aI00
aI00
aI01
aa(lp99
I01
aI00
aI01
aI01
aI01
aI00
aI01
aI01
aI01
aI01
aI01
aI01
aI01
aI01
aI01
aI01
aI01
aI01
aa(lp100
I01
aI00
aI01
aI00
aI00
aI00
aI00
aI00
aI00
aI00
aI00
aI00
aI00
aI00
aI00
aI00
aI00
aI01
aa(lp101
I01
aI01
aI01
aI01
aI01
aI01
aI01
aI01
aI01
aI01
aI01
aI01
aI01
aI01
aI01
aI01
aI01
aI01
aasg53
I18
sbsS'layoutText'
p102
(lp103
S'%%%%%%%%%%%%%%%%%%%%%%%%%%%%%%%%%%'
p104
aS'%...    ..%..     %..%.%   .%  %4%'
p105
aS'%%%% %%%%%%%%.%%  %% %.%       %2%'
p106
aS'%.%    .    . .      % %% %%%  % %'
p107
aS'%.%       o %%% % %% % %.   %% % %'
p108
aS'%  .%%%%% %       %. % %  % %. % %'
p109
aS'% %  %.%  %.%        % %  % %  % %'
p110
aS'% %  %.% .. %% % % %%%.%  % %% % %'
p111
aS'% % %% %o % %  %     % %  % %. %.%'
p112
aS'%.% .% %  % %     %  % % o% %% % %'
p113
aS'% % %% %  %.%%% % % %% .. %.%  % %'
p114
aS'% %  % %  % %        %.%  %.%  % %'
p115
aS'% % .% %  % % .%       % %%%%%.  %'
p116
aS'% % %%   .% % %% % %%% o       %.%'
p117
aS'% %  %%% %% %      . .    .    %.%'
p118
aS'%1%       %.% %%  %%.%%%%%%%% %%%%'
p119
aS'%3%  %.   %.%..%     ..%..    ...%'
p120
aS'%%%%%%%%%%%%%%%%%%%%%%%%%%%%%%%%%%'
p121
asbsS'blueTeamName'
p122
S'schwifty'
p123
sS'actions'
p124
(lp125
(I0
S'North'
p126
tp127
a(I1
S'South'
p128
tp129
a(I2
g126
tp130
a(I3
g128
tp131
a(I0
g126
tp132
a(I1
g128
tp133
a(I2
g126
tp134
a(I3
g128
tp135
a(I0
g126
tp136
a(I1
g128
tp137
a(I2
g126
tp138
a(I3
g128
tp139
a(I0
g126
tp140
a(I1
g128
tp141
a(I2
g126
tp142
a(I3
g128
tp143
a(I0
g126
tp144
a(I1
g128
tp145
a(I2
g126
tp146
a(I3
g128
tp147
a(I0
g126
tp148
a(I1
g128
tp149
a(I2
g126
tp150
a(I3
g128
tp151
a(I0
g126
tp152
a(I1
g128
tp153
a(I2
g126
tp154
a(I3
g128
tp155
a(I0
g126
tp156
a(I1
g128
tp157
a(I2
g126
tp158
a(I3
g128
tp159
a(I0
g126
tp160
a(I1
g128
tp161
a(I2
g126
tp162
a(I3
g128
tp163
a(I0
g126
tp164
a(I1
g128
tp165
a(I2
g126
tp166
a(I3
g128
tp167
a(I0
S'East'
p168
tp169
a(I1
S'West'
p170
tp171
a(I2
g126
tp172
a(I3
g128
tp173
a(I0
g168
tp174
a(I1
g170
tp175
a(I2
g168
tp176
a(I3
g170
tp177
a(I0
g126
tp178
a(I1
g128
tp179
a(I2
g168
tp180
a(I3
g170
tp181
a(I0
g168
tp182
a(I1
g170
tp183
a(I2
g126
tp184
a(I3
g128
tp185
a(I0
g168
tp186
a(I1
g170
tp187
a(I2
g168
tp188
a(I3
g170
tp189
a(I0
g168
tp190
a(I1
g170
tp191
a(I2
g168
tp192
a(I3
g170
tp193
a(I0
g168
tp194
a(I1
g170
tp195
a(I2
g168
tp196
a(I3
g170
tp197
a(I0
g168
tp198
a(I1
g170
tp199
a(I2
g168
tp200
a(I3
g170
tp201
a(I0
g168
tp202
a(I1
g170
tp203
a(I2
g168
tp204
a(I3
g170
tp205
a(I0
g168
tp206
a(I1
g170
tp207
a(I2
g168
tp208
a(I3
g170
tp209
a(I0
g168
tp210
a(I1
g170
tp211
a(I2
g168
tp212
a(I3
g170
tp213
a(I0
g128
tp214
a(I1
g126
tp215
a(I2
g168
tp216
a(I3
g170
tp217
a(I0
g168
tp218
a(I1
g170
tp219
a(I2
g128
tp220
a(I3
g126
tp221
a(I0
g168
tp222
a(I1
g170
tp223
a(I2
g168
tp224
a(I3
g126
tp225
a(I0
g128
tp226
a(I1
g170
tp227
a(I2
g168
tp228
a(I3
g126
tp229
a(I0
g168
tp230
a(I1
g170
tp231
a(I2
g128
tp232
a(I3
g168
tp233
a(I0
g168
tp234
a(I1
g170
tp235
a(I2
g168
tp236
a(I3
g168
tp237
a(I0
g168
tp238
a(I1
g170
tp239
a(I2
g168
tp240
a(I3
g128
tp241
a(I0
g168
tp242
a(I1
g126
tp243
a(I2
g168
tp244
a(I3
g128
tp245
a(I0
g168
tp246
a(I1
g170
tp247
a(I2
g128
tp248
a(I3
g128
tp249
a(I0
g168
tp250
a(I1
g170
tp251
a(I2
g128
tp252
a(I3
g170
tp253
a(I0
g126
tp254
a(I1
g128
tp255
a(I2
g168
tp256
a(I3
g170
tp257
a(I0
g168
tp258
a(I1
g170
tp259
a(I2
g168
tp260
a(I3
g126
tp261
a(I0
g126
tp262
a(I1
g128
tp263
a(I2
g168
tp264
a(I3
g126
tp265
a(I0
g126
tp266
a(I1
g128
tp267
a(I2
g128
tp268
a(I3
g128
tp269
a(I0
g126
tp270
a(I1
g128
tp271
a(I2
g128
tp272
a(I3
g170
tp273
a(I0
g126
tp274
a(I1
g128
tp275
a(I2
S'Stop'
p276
tp277
a(I3
g170
tp278
a(I0
g170
tp279
a(I1
g168
tp280
a(I2
g128
tp281
a(I3
g170
tp282
a(I0
g168
tp283
a(I1
g170
tp284
a(I2
g168
tp285
a(I3
g126
tp286
a(I0
g128
tp287
a(I1
g126
tp288
a(I2
g128
tp289
a(I3
g168
tp290
a(I0
g128
tp291
a(I1
g126
tp292
a(I2
g168
tp293
a(I3
g128
tp294
a(I0
g128
tp295
a(I1
g126
tp296
a(I2
g168
tp297
a(I3
g168
tp298
a(I0
g128
tp299
a(I1
g126
tp300
a(I2
g126
tp301
a(I3
g168
tp302
a(I0
g170
tp303
a(I1
g168
tp304
a(I2
g126
tp305
a(I3
g126
tp306
a(I0
g128
tp307
a(I1
g126
tp308
a(I2
g168
tp309
a(I3
g126
tp310
a(I0
g170
tp311
a(I1
g168
tp312
a(I2
g168
tp313
a(I3
g168
tp314
a(I0
g128
tp315
a(I1
g126
tp316
a(I2
g168
tp317
a(I3
g168
tp318
a(I0
g128
tp319
a(I1
g126
tp320
a(I2
g126
tp321
a(I3
g126
tp322
a(I0
g170
tp323
a(I1
g170
tp324
a(I2
g170
tp325
a(I3
g128
tp326
a(I0
g170
tp327
a(I1
g126
tp328
a(I2
g126
tp329
a(I3
g128
tp330
a(I0
g128
tp331
a(I1
g126
tp332
a(I2
g126
tp333
a(I3
g128
tp334
a(I0
g170
tp335
a(I1
g126
tp336
a(I2
g126
tp337
a(I3
g128
tp338
a(I0
g170
tp339
a(I1
g126
tp340
a(I2
g126
tp341
a(I3
g128
tp342
a(I0
g126
tp343
a(I1
g170
tp344
a(I2
g126
tp345
a(I3
g128
tp346
a(I0
g126
tp347
a(I1
g170
tp348
a(I2
g168
tp349
a(I3
g128
tp350
a(I0
g126
tp351
a(I1
g170
tp352
a(I2
g126
tp353
a(I3
g128
tp354
a(I0
g128
tp355
a(I1
g128
tp356
a(I2
g126
tp357
a(I3
g128
tp358
a(I0
g126
tp359
a(I1
g128
tp360
a(I2
g168
tp361
a(I3
g128
tp362
a(I0
g170
tp363
a(I1
g170
tp364
a(I2
g126
tp365
a(I3
g128
tp366
a(I0
g126
tp367
a(I1
g170
tp368
a(I2
g168
tp369
a(I3
g170
tp370
a(I0
g168
tp371
a(I1
g128
tp372
a(I2
g128
tp373
a(I3
g170
tp374
a(I0
g128
tp375
a(I1
g128
tp376
a(I2
g168
tp377
a(I3
g128
tp378
a(I0
g128
tp379
a(I1
g128
tp380
a(I2
g168
tp381
a(I3
g170
tp382
a(I0
g128
tp383
a(I1
g128
tp384
a(I2
g168
tp385
a(I3
g170
tp386
a(I0
g128
tp387
a(I1
g128
tp388
a(I2
g128
tp389
a(I3
g170
tp390
a(I0
g168
tp391
a(I1
g128
tp392
a(I2
g128
tp393
a(I3
g170
tp394
a(I0
g128
tp395
a(I1
g170
tp396
a(I2
g128
tp397
a(I3
g170
tp398
a(I0
g128
tp399
a(I1
g128
tp400
a(I2
g170
tp401
a(I3
g170
tp402
a(I0
g168
tp403
a(I1
g128
tp404
a(I2
g168
tp405
a(I3
g128
tp406
a(I0
g128
tp407
a(I1
g170
tp408
a(I2
g128
tp409
a(I3
g168
tp410
a(I0
g168
tp411
a(I1
g170
tp412
a(I2
g128
tp413
a(I3
g126
tp414
a(I0
g168
tp415
a(I1
g128
tp416
a(I2
g128
tp417
a(I3
g170
tp418
a(I0
g128
tp419
a(I1
g126
tp420
a(I2
g170
tp421
a(I3
g128
tp422
a(I0
g128
tp423
a(I1
g170
tp424
a(I2
g168
tp425
a(I3
g168
tp426
a(I0
g168
tp427
a(I1
g170
tp428
a(I2
g128
tp429
a(I3
g126
tp430
a(I0
g168
tp431
a(I1
g170
tp432
a(I2
g128
tp433
a(I3
g170
tp434
a(I0
g128
tp435
a(I1
g126
tp436
a(I2
g128
tp437
a(I3
g128
tp438
a(I0
g128
tp439
a(I1
g126
tp440
a(I2
g128
tp441
a(I3
g168
tp442
a(I0
g168
tp443
a(I1
g126
tp444
a(I2
g168
tp445
a(I3
g126
tp446
a(I0
g168
tp447
a(I1
g168
tp448
a(I2
g168
tp449
a(I3
g168
tp450
a(I0
g170
tp451
a(I1
g170
tp452
a(I2
g128
tp453
a(I3
g168
tp454
a(I0
g170
tp455
a(I1
g126
tp456
a(I2
g126
tp457
a(I3
g168
tp458
a(I0
g126
tp459
a(I1
g126
tp460
a(I2
g170
tp461
a(I3
g168
tp462
a(I0
g126
tp463
a(I1
g126
tp464
a(I2
g170
tp465
a(I3
g168
tp466
a(I0
g168
tp467
a(I1
g168
tp468
a(I2
g126
tp469
a(I3
g126
tp470
a(I0
g168
tp471
a(I1
g170
tp472
a(I2
g126
tp473
a(I3
g126
tp474
a(I0
g168
tp475
a(I1
g126
tp476
a(I2
g170
tp477
a(I3
g126
tp478
a(I0
g168
tp479
a(I1
g126
tp480
a(I2
g128
tp481
a(I3
g170
tp482
a(I0
g168
tp483
a(I1
g126
tp484
a(I2
g168
tp485
a(I3
g128
tp486
a(I0
g168
tp487
a(I1
g126
tp488
a(I2
g128
tp489
a(I3
g168
tp490
a(I0
g168
tp491
a(I1
g170
tp492
a(I2
g128
tp493
a(I3
g128
tp494
a(I0
g168
tp495
a(I1
g170
tp496
a(I2
g170
tp497
a(I3
g128
tp498
a(I0
g170
tp499
a(I1
g126
tp500
a(I2
g170
tp501
a(I3
g170
tp502
a(I0
g170
tp503
a(I1
g126
tp504
a(I2
g170
tp505
a(I3
g170
tp506
a(I0
g126
tp507
a(I1
g128
tp508
a(I2
g170
tp509
a(I3
g170
tp510
a(I0
g170
tp511
a(I1
g128
tp512
a(I2
g170
tp513
a(I3
g170
tp514
a(I0
g170
tp515
a(I1
g128
tp516
a(I2
g170
tp517
a(I3
g170
tp518
a(I0
g170
tp519
a(I1
g128
tp520
a(I2
g168
tp521
a(I3
g128
tp522
a(I0
g170
tp523
a(I1
g128
tp524
a(I2
g168
tp525
a(I3
g128
tp526
a(I0
g126
tp527
a(I1
g128
tp528
a(I2
g168
tp529
a(I3
g128
tp530
a(I0
g126
tp531
a(I1
g126
tp532
a(I2
g168
tp533
a(I3
g128
tp534
a(I0
g126
tp535
a(I1
g126
tp536
a(I2
g168
tp537
a(I3
g128
tp538
a(I0
g126
tp539
a(I1
g126
tp540
a(I2
g168
tp541
a(I3
g128
tp542
a(I0
g126
tp543
a(I1
g126
tp544
a(I2
g126
tp545
a(I3
g128
tp546
a(I0
g126
tp547
a(I1
g168
tp548
a(I2
g168
tp549
a(I3
g128
tp550
a(I0
g126
tp551
a(I1
g168
tp552
a(I2
g168
tp553
a(I3
g128
tp554
a(I0
g126
tp555
a(I1
g126
tp556
a(I2
g170
tp557
a(I3
g128
tp558
a(I0
g126
tp559
a(I1
g168
tp560
a(I2
g170
tp561
a(I3
g128
tp562
a(I0
g126
tp563
a(I1
g168
tp564
a(I2
g126
tp565
a(I3
g170
tp566
a(I0
g126
tp567
a(I1
g168
tp568
a(I2
g126
tp569
a(I3
g170
tp570
a(I0
g126
tp571
a(I1
g168
tp572
a(I2
g170
tp573
a(I3
g126
tp574
a(I0
g128
tp575
a(I1
g126
tp576
a(I2
g276
tp577
a(I3
g126
tp578
a(I0
g128
tp579
a(I1
g168
tp580
a(I2
g128
tp581
a(I3
g170
tp582
a(I0
g128
tp583
a(I1
g168
tp584
a(I2
g168
tp585
a(I3
g128
tp586
a(I0
g128
tp587
a(I1
g168
tp588
a(I2
g128
tp589
a(I3
g168
tp590
a(I0
g128
tp591
a(I1
g168
tp592
a(I2
g128
tp593
a(I3
g128
tp594
a(I0
g128
tp595
a(I1
g168
tp596
a(I2
g170
tp597
a(I3
g128
tp598
a(I0
g128
tp599
a(I1
g168
tp600
a(I2
g170
tp601
a(I3
g170
tp602
a(I0
g128
tp603
a(I1
g126
tp604
a(I2
g170
tp605
a(I3
g170
tp606
a(I0
g128
tp607
a(I1
g128
tp608
a(I2
g170
tp609
a(I3
g170
tp610
a(I0
g128
tp611
a(I1
g168
tp612
a(I2
g128
tp613
a(I3
g170
tp614
a(I0
g128
tp615
a(I1
g170
tp616
a(I2
g168
tp617
a(I3
g128
tp618
a(I0
g128
tp619
a(I1
g126
tp620
a(I2
g168
tp621
a(I3
g168
tp622
a(I0
g168
tp623
a(I1
g126
tp624
a(I2
g126
tp625
a(I3
g126
tp626
a(I0
g170
tp627
a(I1
g170
tp628
a(I2
g128
tp629
a(I3
g168
tp630
a(I0
g168
tp631
a(I1
g170
tp632
a(I2
g168
tp633
a(I3
g168
tp634
a(I0
g168
tp635
a(I1
g168
tp636
a(I2
g168
tp637
a(I3
g128
tp638
a(I0
g168
tp639
a(I1
g168
tp640
a(I2
g126
tp641
a(I3
g168
tp642
a(I0
g168
tp643
a(I1
g128
tp644
a(I2
g126
tp645
a(I3
g126
tp646
a(I0
g276
tp647
a(I1
g128
tp648
a(I2
g126
tp649
a(I3
g126
tp650
a(I0
g168
tp651
a(I1
g170
tp652
a(I2
g170
tp653
a(I3
g126
tp654
a(I0
g168
tp655
a(I1
g170
tp656
a(I2
g126
tp657
a(I3
g126
tp658
a(I0
g128
tp659
a(I1
g128
tp660
a(I2
g128
tp661
a(I3
g170
tp662
a(I0
g168
tp663
a(I1
g128
tp664
a(I2
g168
tp665
a(I3
g128
tp666
a(I0
g128
tp667
a(I1
g128
tp668
a(I2
g126
tp669
a(I3
g168
tp670
a(I0
g128
tp671
a(I1
g128
tp672
a(I2
g170
tp673
a(I3
g126
tp674
a(I0
g168
tp675
a(I1
g128
tp676
a(I2
g128
tp677
a(I3
g170
tp678
a(I0
g168
tp679
a(I1
g128
tp680
a(I2
g168
tp681
a(I3
g128
tp682
a(I0
g168
tp683
a(I1
g128
tp684
a(I2
g126
tp685
a(I3
g168
tp686
a(I0
g170
tp687
a(I1
g128
tp688
a(I2
g126
tp689
a(I3
g126
tp690
a(I0
g170
tp691
a(I1
g128
tp692
a(I2
g126
tp693
a(I3
g126
tp694
a(I0
g170
tp695
a(I1
g128
tp696
a(I2
g126
tp697
a(I3
g126
tp698
a(I0
g170
tp699
a(I1
g128
tp700
a(I2
g126
tp701
a(I3
g126
tp702
a(I0
g170
tp703
a(I1
g128
tp704
a(I2
g126
tp705
a(I3
g126
tp706
a(I0
g170
tp707
a(I1
g128
tp708
a(I2
g126
tp709
a(I3
g126
tp710
a(I0
g170
tp711
a(I1
g126
tp712
a(I2
g126
tp713
a(I3
g126
tp714
a(I0
g170
tp715
a(I1
g126
tp716
a(I2
g170
tp717
a(I3
g126
tp718
a(I0
g168
tp719
a(I1
g126
tp720
a(I2
g126
tp721
a(I3
g170
tp722
a(I0
g168
tp723
a(I1
g126
tp724
a(I2
g170
tp725
a(I3
g126
tp726
a(I0
g168
tp727
a(I1
g126
tp728
a(I2
g170
tp729
a(I3
g170
tp730
a(I0
g168
tp731
a(I1
g126
tp732
a(I2
g170
tp733
a(I3
g170
tp734
a(I0
g168
tp735
a(I1
g126
tp736
a(I2
g126
tp737
a(I3
g170
tp738
a(I0
g126
tp739
a(I1
g126
tp740
a(I2
g170
tp741
a(I3
g170
tp742
a(I0
g126
tp743
a(I1
g126
tp744
a(I2
g170
tp745
a(I3
g170
tp746
a(I0
g168
tp747
a(I1
g170
tp748
a(I2
g168
tp749
a(I3
g168
tp750
a(I0
g126
tp751
a(I1
g170
tp752
a(I2
g170
tp753
a(I3
g126
tp754
a(I0
g126
tp755
a(I1
g126
tp756
a(I2
g128
tp757
a(I3
g128
tp758
a(I0
g168
tp759
a(I1
g126
tp760
a(I2
g126
tp761
a(I3
g170
tp762
a(I0
g168
tp763
a(I1
g126
tp764
a(I2
g168
tp765
a(I3
g168
tp766
a(I0
g128
tp767
a(I1
g126
tp768
a(I2
g170
tp769
a(I3
g126
tp770
a(I0
g128
tp771
a(I1
g170
tp772
a(I2
g128
tp773
a(I3
g128
tp774
a(I0
g126
tp775
a(I1
g170
tp776
a(I2
g126
tp777
a(I3
g170
tp778
a(I0
g126
tp779
a(I1
g170
tp780
a(I2
g168
tp781
a(I3
g168
tp782
a(I0
g126
tp783
a(I1
g170
tp784
a(I2
g170
tp785
a(I3
g126
tp786
a(I0
g126
tp787
a(I1
g170
tp788
a(I2
g128
tp789
a(I3
g128
tp790
a(I0
g126
tp791
a(I1
g126
tp792
a(I2
g126
tp793
a(I3
g170
tp794
a(I0
g126
tp795
asS'length'
p796
I1200
sS'agents'
p797
(lp798
(igame
Agent
p799
(dp800
S'index'
p801
I0
sba(igame
Agent
p802
(dp803
g801
I0
sba(igame
Agent
p804
(dp805
g801
I0
sba(igame
Agent
p806
(dp807
g801
I0
sbasS'redTeamName'
p808
S'ENIAC'
p809
s.