(dp1
S'layout'
p2
(ilayout
Layout
p3
(dp4
S'capsules'
p5
(lp6
(I23
I4
tp7
a(I25
I8
tp8
a(I8
I9
tp9
a(I10
I13
tp10
asS'numGhosts'
p11
I4
sS'food'
p12
(igame
Grid
p13
(dp14
S'CELLS_PER_INT'
p15
I30
sS'width'
p16
I34
sS'data'
p17
(lp18
(lp19
I00
aI00
aI00
aI00
aI00
aI00
aI00
aI00
aI00
aI00
aI00
aI00
aI00
aI00
aI00
aI00
aI00
aI00
aa(lp20
I00
aI00
aI00
aI00
aI00
aI00
aI00
aI00
aI01
aI00
aI00
aI00
aI00
aI01
aI01
aI00
aI01
aI00
aa(lp21
I00
aI00
aI00
aI00
aI00
aI00
aI00
aI00
aI00
aI00
aI00
aI00
aI00
aI00
aI00
aI00
aI01
aI00
aa(lp22
I00
aI00
aI00
aI00
aI00
aI00
aI00
aI00
aI00
aI00
aI00
aI00
aI01
aI00
aI00
aI00
aI01
aI00
aa(lp23
I00
aI00
aI00
aI00
aI00
aI01
aI00
aI00
aI01
aI00
aI00
aI00
aI00
aI00
aI00
aI00
aI00
aI00
aa(lp24
I00
aI00
aI00
aI00
aI00
aI00
aI00
aI00
aI00
aI00
aI00
aI00
aI00
aI00
aI00
aI00
aI00
aI00
aa(lp25
I00
aI01
aI00
aI00
aI00
aI00
aI00
aI00
aI00
aI00
aI01
aI01
aI00
aI00
aI00
aI00
aI00
aI00
aa(lp26
I00
aI00
aI00
aI00
aI00
aI00
aI00
aI00
aI00
aI00
aI00
aI00
aI00
aI00
aI01
aI00
aI00
aI00
aa(lp27
I00
aI00
aI00
aI00
aI00
aI00
aI00
aI00
aI00
aI00
aI00
aI00
aI00
aI00
aI00
aI00
aI01
aI00
aa(lp28
I00
aI00
aI00
aI00
aI01
aI00
aI00
aI00
aI00
aI00
aI01
aI00
aI00
aI00
aI00
aI00
aI01
aI00
aa(lp29
I00
aI00
aI00
aI00
aI00
aI00
aI00
aI00
aI00
aI00
aI01
aI00
aI00
aI00
aI00
aI00
aI00
aI00
aa(lp30
I00
aI01
aI01
aI00
aI00
aI00
aI00
aI01
aI00
aI00
aI00
aI01
aI00
aI00
aI00
aI00
aI01
aI00
aa(lp31
I00
aI00
aI00
aI00
aI00
aI00
aI00
aI00
aI00
aI00
aI00
aI00
aI00
aI00
aI01
aI00
aI01
aI00
aa(lp32
I00
aI01
aI00
aI00
aI00
aI00
aI00
aI00
aI00
aI00
aI00
aI00
aI00
aI00
aI00
aI01
aI00
aI00
aa(lp33
I00
aI01
aI00
aI00
aI00
aI01
aI00
aI00
aI00
aI00
aI00
aI00
aI00
aI00
aI01
aI00
aI00
aI00
aa(lp34
I00
aI00
aI00
aI00
aI00
aI00
aI00
aI00
aI00
aI00
aI00
aI00
aI00
aI00
aI00
aI00
aI00
aI00
aa(lp35
I00
aI00
aI00
aI00
aI00
aI00
aI00
aI00
aI00
aI00
aI00
aI00
aI00
aI00
aI00
aI00
aI00
aI00
aa(lp36
I00
aI00
aI00
aI00
aI00
aI00
aI00
aI00
aI00
aI00
aI00
aI00
aI00
aI00
aI00
aI00
aI00
aI00
aa(lp37
I00
aI00
aI00
aI00
aI00
aI00
aI00
aI00
aI00
aI00
aI00
aI00
aI00
aI00
aI00
aI00
aI00
aI00
aa(lp38
I00
aI00
aI00
aI01
aI00
aI00
aI00
aI00
aI00
aI00
aI00
aI00
aI01
aI00
aI00
aI00
aI01
aI00
aa(lp39
I00
aI00
aI01
aI00
aI00
aI00
aI00
aI00
aI00
aI00
aI00
aI00
aI00
aI00
aI00
aI00
aI01
aI00
aa(lp40
I00
aI01
aI00
aI01
aI00
aI00
aI00
aI00
aI00
aI00
aI00
aI00
aI00
aI00
aI00
aI00
aI00
aI00
aa(lp41
I00
aI01
aI00
aI00
aI00
aI00
aI01
aI00
aI00
aI00
aI01
aI00
aI00
aI00
aI00
aI01
aI01
aI00
aa(lp42
I00
aI00
aI00
aI00
aI00
aI00
aI00
aI01
aI00
aI00
aI00
aI00
aI00
aI00
aI00
aI00
aI00
aI00
aa(lp43
I00
aI01
aI00
aI00
aI00
aI00
aI00
aI01
aI00
aI00
aI00
aI00
aI00
aI01
aI00
aI00
aI00
aI00
aa(lp44
I00
aI01
aI00
aI00
aI00
aI00
aI00
aI00
aI00
aI00
aI00
aI00
aI00
aI00
aI00
aI00
aI00
aI00
aa(lp45
I00
aI00
aI00
aI01
aI00
aI00
aI00
aI00
aI00
aI00
aI00
aI00
aI00
aI00
aI00
aI00
aI00
aI00
aa(lp46
I00
aI00
aI00
aI00
aI00
aI00
aI01
aI01
aI00
aI00
aI00
aI00
aI00
aI00
aI00
aI00
aI01
aI00
aa(lp47
I00
aI00
aI00
aI00
aI00
aI00
aI00
aI00
aI00
aI00
aI00
aI00
aI00
aI00
aI00
aI00
aI00
aI00
aa(lp48
I00
aI00
aI00
aI00
aI00
aI00
aI00
aI00
aI00
aI01
aI00
aI00
aI01
aI00
aI00
aI00
aI00
aI00
aa(lp49
I00
aI01
aI00
aI00
aI00
aI01
aI00
aI00
aI00
aI00
aI00
aI00
aI00
aI00
aI00
aI00
aI00
aI00
aa(lp50
I00
aI01
aI00
aI00
aI00
aI00
aI00
aI00
aI00
aI00
aI00
aI00
aI00
aI00
aI00
aI00
aI00
aI00
aa(lp51
I00
aI01
aI00
aI01
aI01
aI00
aI00
aI00
aI00
aI01
aI00
aI00
aI00
aI00
aI00
aI00
aI00
aI00
aa(lp52
I00
aI00
aI00
aI00
aI00
aI00
aI00
aI00
aI00
aI00
aI00
aI00
aI00
aI00
aI00
aI00
aI00
aI00
aasS'height'
p53
I18
sbsS'agentPositions'
p54
(lp55
(I00
(I1
I2
tp56
tp57
a(I00
(I32
I15
tp58
tp59
a(I00
(I1
I1
tp60
tp61
a(I00
(I32
I16
tp62
tp63
asg53
I18
sg16
I34
sS'walls'
p64
(igame
Grid
p65
(dp66
g15
I30
sg16
I34
sg17
(lp67
(lp68
I01
aI01
aI01
aI01
aI01
aI01
aI01
aI01
aI01
aI01
aI01
aI01
aI01
aI01
aI01
aI01
aI01
aI01
aa(lp69
I01
aI00
aI00
aI00
aI00
aI00
aI00
aI00
aI00
aI00
aI00
aI00
aI00
aI00
aI00
aI01
aI00
aI01
aa(lp70
I01
aI01
aI01
aI01
aI01
aI01
aI01
aI01
aI01
aI01
aI01
aI01
aI00
aI01
aI01
aI01
aI00
aI01
aa(lp71
I01
aI00
aI00
aI00
aI00
aI00
aI00
aI00
aI00
aI00
aI00
aI00
aI00
aI00
aI00
aI01
aI00
aI01
aa(lp72
I01
aI00
aI00
aI00
aI01
aI00
aI00
aI01
aI00
aI01
aI00
aI00
aI01
aI00
aI00
aI00
aI00
aI01
aa(lp73
I01
aI01
aI00
aI01
aI01
aI01
aI01
aI01
aI01
aI01
aI01
aI01
aI01
aI00
aI00
aI01
aI00
aI01
aa(lp74
I01
aI00
aI00
aI01
aI00
aI00
aI00
aI00
aI00
aI00
aI00
aI00
aI01
aI00
aI00
aI01
aI00
aI01
aa(lp75
I01
aI00
aI00
aI01
aI00
aI01
aI01
aI01
aI01
aI01
aI01
aI01
aI01
aI00
aI00
aI01
aI00
aI01
aa(lp76
I01
aI00
aI00
aI00
aI00
aI00
aI00
aI00
aI00
aI00
aI00
aI00
aI01
aI00
aI00
aI01
aI00
aI01
aa(lp77
I01
aI00
aI00
aI01
aI00
aI00
aI00
aI00
aI00
aI00
aI00
aI00
aI00
aI00
aI00
aI01
aI00
aI01
aa(lp78
I01
aI01
aI01
aI01
aI01
aI01
aI01
aI01
aI01
aI01
aI00
aI01
aI01
aI00
aI00
aI01
aI01
aI01
aa(lp79
I01
aI00
aI00
aI00
aI00
aI00
aI00
aI00
aI00
aI00
aI00
aI00
aI00
aI00
aI00
aI01
aI00
aI01
aa(lp80
I01
aI01
aI01
aI01
aI01
aI01
aI01
aI01
aI01
aI01
aI01
aI01
aI00
aI01
aI00
aI01
aI00
aI01
aa(lp81
I01
aI00
aI00
aI00
aI00
aI00
aI00
aI01
aI00
aI00
aI01
aI00
aI00
aI01
aI00
aI00
aI00
aI01
aa(lp82
I01
aI00
aI01
aI00
aI01
aI00
aI00
aI01
aI00
aI00
aI00
aI00
aI00
aI01
aI00
aI01
aI00
aI01
aa(lp83
I01
aI01
aI01
aI00
aI01
aI01
aI00
aI00
aI00
aI01
aI01
aI00
aI00
aI00
aI00
aI01
aI00
aI01
aa(lp84
I01
aI00
aI00
aI00
aI00
aI00
aI00
aI01
aI00
aI00
aI00
aI00
aI00
aI01
aI00
aI00
aI00
aI01
aa(lp85
I01
aI00
aI00
aI00
aI01
aI00
aI00
aI00
aI00
aI00
aI01
aI00
aI00
aI00
aI00
aI00
aI00
aI01
aa(lp86
I01
aI00
aI01
aI00
aI00
aI00
aI00
aI01
aI01
aI00
aI00
aI00
aI01
aI01
aI00
aI01
aI01
aI01
aa(lp87
I01
aI00
aI01
aI00
aI01
aI00
aI00
aI00
aI00
aI00
aI01
aI00
aI00
aI01
aI00
aI01
aI00
aI01
aa(lp88
I01
aI00
aI00
aI00
aI01
aI00
aI00
aI01
aI00
aI00
aI01
aI00
aI00
aI00
aI00
aI00
aI00
aI01
aa(lp89
I01
aI00
aI01
aI00
aI01
aI00
aI01
aI01
aI01
aI01
aI01
aI01
aI01
aI01
aI01
aI01
aI01
aI01
aa(lp90
I01
aI00
aI01
aI00
aI00
aI00
aI00
aI00
aI00
aI00
aI00
aI00
aI00
aI00
aI00
aI00
aI00
aI01
aa(lp91
I01
aI01
aI01
aI00
aI00
aI01
aI01
aI00
aI01
aI01
aI01
aI01
aI01
aI01
aI01
aI01
aI01
aI01
aa(lp92
I01
aI00
aI01
aI00
aI00
aI00
aI00
aI00
aI00
aI00
aI00
aI00
aI00
aI00
aI01
aI00
aI00
aI01
aa(lp93
I01
aI00
aI01
aI00
aI00
aI01
aI00
aI00
aI00
aI00
aI00
aI00
aI00
aI00
aI00
aI00
aI00
aI01
aa(lp94
I01
aI00
aI01
aI00
aI00
aI01
aI01
aI01
aI01
aI01
aI01
aI01
aI01
aI00
aI01
aI00
aI00
aI01
aa(lp95
I01
aI00
aI01
aI00
aI00
aI01
aI00
aI00
aI00
aI00
aI00
aI00
aI00
aI00
aI01
aI00
aI00
aI01
aa(lp96
I01
aI00
aI01
aI00
aI00
aI01
aI01
aI01
aI01
aI01
aI01
aI01
aI01
aI01
aI01
aI00
aI01
aI01
aa(lp97
I01
aI00
aI00
aI00
aI00
aI01
aI00
aI00
aI01
aI00
aI01
aI00
aI00
aI01
aI00
aI00
aI00
aI01
aa(lp98
I01
aI00
aI01
aI00
aI00
aI00
aI00
aI00
aI00
aI00
aI00
aI00
aI00
aI00
aI00
aI00
aI00
aI01
aa(lp99
I01
aI00
aI01
aI01
aI01
aI00
aI01
aI01
aI01
aI01
aI01
aI01
aI01
aI01
aI01
aI01
aI01
aI01
aa(lp100
I01
aI00
aI01
aI00
aI00
aI00
aI00
aI00
aI00
aI00
aI00
aI00
aI00
aI00
aI00
aI00
aI00
aI01
aa(lp101
I01
aI01
aI01
aI01
aI01
aI01
aI01
aI01
aI01
aI01
aI01
aI01
aI01
aI01
aI01
aI01
aI01
aI01
aasg53
I18
sbsS'layoutText'
p102
(lp103
S'%%%%%%%%%%%%%%%%%%%%%%%%%%%%%%%%%%'
p104
aS'%...    ..%..     %..%.%   .%  %4%'
p105
aS'%%%% %%%%%%%%.%%  %% %.%       %2%'
p106
aS'%.%    .    . .      % %% %%%  % %'
p107
aS'%.%       o %%% % %% % %.   %% % %'
p108
aS'%  .%%%%% %       %. % %  % %. % %'
p109
aS'% %  %.%  %.%        % %  % %  % %'
p110
aS'% %  %.% .. %% % % %%%.%  % %% % %'
p111
aS'% % %% %o % %  %     % %  % %. %.%'
p112
aS'%.% .% %  % %     %  % % o% %% % %'
p113
aS'% % %% %  %.%%% % % %% .. %.%  % %'
p114
aS'% %  % %  % %        %.%  %.%  % %'
p115
aS'% % .% %  % % .%       % %%%%%.  %'
p116
aS'% % %%   .% % %% % %%% o       %.%'
p117
aS'% %  %%% %% %      . .    .    %.%'
p118
aS'%1%       %.% %%  %%.%%%%%%%% %%%%'
p119
aS'%3%  %.   %.%..%     ..%..    ...%'
p120
aS'%%%%%%%%%%%%%%%%%%%%%%%%%%%%%%%%%%'
p121
asbsS'blueTeamName'
p122
S'SoStupid'
p123
sS'actions'
p124
(lp125
(I1
S'South'
p126
tp127
a(I2
S'North'
p128
tp129
a(I3
g126
tp130
a(I0
g128
tp131
a(I1
g126
tp132
a(I2
g128
tp133
a(I3
g126
tp134
a(I0
g128
tp135
a(I1
g126
tp136
a(I2
g128
tp137
a(I3
g126
tp138
a(I0
g128
tp139
a(I1
g126
tp140
a(I2
g128
tp141
a(I3
g126
tp142
a(I0
g128
tp143
a(I1
g126
tp144
a(I2
g128
tp145
a(I3
g126
tp146
a(I0
g128
tp147
a(I1
g126
tp148
a(I2
g128
tp149
a(I3
g126
tp150
a(I0
g128
tp151
a(I1
g126
tp152
a(I2
g128
tp153
a(I3
g126
tp154
a(I0
g128
tp155
a(I1
g126
tp156
a(I2
g128
tp157
a(I3
g126
tp158
a(I0
g128
tp159
a(I1
g126
tp160
a(I2
g128
tp161
a(I3
g126
tp162
a(I0
g128
tp163
a(I1
g126
tp164
a(I2
g128
tp165
a(I3
g126
tp166
a(I0
g128
tp167
a(I1
S'West'
p168
tp169
a(I2
g128
tp170
a(I3
g126
tp171
a(I0
S'East'
p172
tp173
a(I1
g168
tp174
a(I2
g172
tp175
a(I3
g168
tp176
a(I0
g172
tp177
a(I1
g126
tp178
a(I2
g172
tp179
a(I3
g168
tp180
a(I0
g128
tp181
a(I1
g168
tp182
a(I2
g128
tp183
a(I3
g126
tp184
a(I0
g172
tp185
a(I1
g168
tp186
a(I2
g172
tp187
a(I3
g126
tp188
a(I0
g172
tp189
a(I1
g168
tp190
a(I2
g172
tp191
a(I3
g168
tp192
a(I0
g172
tp193
a(I1
g168
tp194
a(I2
g172
tp195
a(I3
g168
tp196
a(I0
g172
tp197
a(I1
g168
tp198
a(I2
g172
tp199
a(I3
g168
tp200
a(I0
g172
tp201
a(I1
g168
tp202
a(I2
g172
tp203
a(I3
g168
tp204
a(I0
g172
tp205
a(I1
g168
tp206
a(I2
g172
tp207
a(I3
g168
tp208
a(I0
g172
tp209
a(I1
g168
tp210
a(I2
g172
tp211
a(I3
g168
tp212
a(I0
g172
tp213
a(I1
g128
tp214
a(I2
g172
tp215
a(I3
g168
tp216
a(I0
g126
tp217
a(I1
g168
tp218
a(I2
g126
tp219
a(I3
g168
tp220
a(I0
g172
tp221
a(I1
g168
tp222
a(I2
g172
tp223
a(I3
g168
tp224
a(I0
g172
tp225
a(I1
g128
tp226
a(I2
g172
tp227
a(I3
g168
tp228
a(I0
g126
tp229
a(I1
g168
tp230
a(I2
g172
tp231
a(I3
g168
tp232
a(I0
g172
tp233
a(I1
g128
tp234
a(I2
g172
tp235
a(I3
g168
tp236
a(I0
g172
tp237
a(I1
g128
tp238
a(I2
g126
tp239
a(I3
g168
tp240
a(I0
g172
tp241
a(I1
g128
tp242
a(I2
g172
tp243
a(I3
g168
tp244
a(I0
g172
tp245
a(I1
g168
tp246
a(I2
g126
tp247
a(I3
g168
tp248
a(I0
g172
tp249
a(I1
g128
tp250
a(I2
g126
tp251
a(I3
g168
tp252
a(I0
g172
tp253
a(I1
g128
tp254
a(I2
g126
tp255
a(I3
g168
tp256
a(I0
g128
tp257
a(I1
g172
tp258
a(I2
g172
tp259
a(I3
g126
tp260
a(I0
g172
tp261
a(I1
g128
tp262
a(I2
g126
tp263
a(I3
g126
tp264
a(I0
g126
tp265
a(I1
g126
tp266
a(I2
g126
tp267
a(I3
g172
tp268
a(I0
g128
tp269
a(I1
g128
tp270
a(I2
g126
tp271
a(I3
g168
tp272
a(I0
g126
tp273
a(I1
g172
tp274
a(I2
g172
tp275
a(I3
g128
tp276
a(I0
g168
tp277
a(I1
g168
tp278
a(I2
g126
tp279
a(I3
g128
tp280
a(I0
g168
tp281
a(I1
g126
tp282
a(I2
g126
tp283
a(I3
g128
tp284
a(I0
g126
tp285
a(I1
g168
tp286
a(I2
g172
tp287
a(I3
g128
tp288
a(I0
g126
tp289
a(I1
g126
tp290
a(I2
g172
tp291
a(I3
g172
tp292
a(I0
g172
tp293
a(I1
g126
tp294
a(I2
g172
tp295
a(I3
g128
tp296
a(I0
g126
tp297
a(I1
g172
tp298
a(I2
g168
tp299
a(I3
g172
tp300
a(I0
g126
tp301
a(I1
g126
tp302
a(I2
g126
tp303
a(I3
g128
tp304
a(I0
g126
tp305
a(I1
g126
tp306
a(I2
g126
tp307
a(I3
g128
tp308
a(I0
g126
tp309
a(I1
g126
tp310
a(I2
g172
tp311
a(I3
g168
tp312
a(I0
g172
tp313
a(I1
g172
tp314
a(I2
g172
tp315
a(I3
g128
tp316
a(I0
g172
tp317
a(I1
g126
tp318
a(I2
g168
tp319
a(I3
g128
tp320
a(I0
g172
tp321
a(I1
g172
tp322
a(I2
g168
tp323
a(I3
g128
tp324
a(I0
g128
tp325
a(I1
g172
tp326
a(I2
g128
tp327
a(I3
g128
tp328
a(I0
g128
tp329
a(I1
g128
tp330
a(I2
g128
tp331
a(I3
g172
tp332
a(I0
g172
tp333
a(I1
g128
tp334
a(I2
g172
tp335
a(I3
g128
tp336
a(I0
g172
tp337
a(I1
g172
tp338
a(I2
g172
tp339
a(I3
g128
tp340
a(I0
g128
tp341
a(I1
g172
tp342
a(I2
g172
tp343
a(I3
g168
tp344
a(I0
g172
tp345
a(I1
g168
tp346
a(I2
g172
tp347
a(I3
g168
tp348
a(I0
g168
tp349
a(I1
g168
tp350
a(I2
g172
tp351
a(I3
g168
tp352
a(I0
g128
tp353
a(I1
g126
tp354
a(I2
g172
tp355
a(I3
g168
tp356
a(I0
g128
tp357
a(I1
g126
tp358
a(I2
g172
tp359
a(I3
g126
tp360
a(I0
g128
tp361
a(I1
g168
tp362
a(I2
g172
tp363
a(I3
g168
tp364
a(I0
g128
tp365
a(I1
g168
tp366
a(I2
g172
tp367
a(I3
g168
tp368
a(I0
g128
tp369
a(I1
g128
tp370
a(I2
g172
tp371
a(I3
g168
tp372
a(I0
g172
tp373
a(I1
g168
tp374
a(I2
g128
tp375
a(I3
g168
tp376
a(I0
g128
tp377
a(I1
g128
tp378
a(I2
g128
tp379
a(I3
g128
tp380
a(I0
g128
tp381
a(I1
g128
tp382
a(I2
g172
tp383
a(I3
g172
tp384
a(I0
g172
tp385
a(I1
g128
tp386
a(I2
g172
tp387
a(I3
g172
tp388
a(I0
g172
tp389
a(I1
g168
tp390
a(I2
g126
tp391
a(I3
g126
tp392
a(I0
g128
tp393
a(I1
g168
tp394
a(I2
g126
tp395
a(I3
g126
tp396
a(I0
g168
tp397
a(I1
g168
tp398
a(I2
g128
tp399
a(I3
g126
tp400
a(I0
g168
tp401
a(I1
g128
tp402
a(I2
g128
tp403
a(I3
g126
tp404
a(I0
g126
tp405
a(I1
g128
tp406
a(I2
g128
tp407
a(I3
g172
tp408
a(I0
g126
tp409
a(I1
g128
tp410
a(I2
g128
tp411
a(I3
g172
tp412
a(I0
g126
tp413
a(I1
g168
tp414
a(I2
g128
tp415
a(I3
g128
tp416
a(I0
g172
tp417
a(I1
g128
tp418
a(I2
g128
tp419
a(I3
g126
tp420
a(I0
g172
tp421
a(I1
g128
tp422
a(I2
g126
tp423
a(I3
g126
tp424
a(I0
g126
tp425
a(I1
g168
tp426
a(I2
g126
tp427
a(I3
g126
tp428
a(I0
g126
tp429
a(I1
g168
tp430
a(I2
g126
tp431
a(I3
g126
tp432
a(I0
g126
tp433
a(I1
g128
tp434
a(I2
g126
tp435
a(I3
g126
tp436
a(I0
g126
tp437
a(I1
g128
tp438
a(I2
g168
tp439
a(I3
g126
tp440
a(I0
g126
tp441
a(I1
g168
tp442
a(I2
g168
tp443
a(I3
g126
tp444
a(I0
g126
tp445
a(I1
g168
tp446
a(I2
g126
tp447
a(I3
g126
tp448
a(I0
g126
tp449
a(I1
g172
tp450
a(I2
g126
tp451
a(I3
g126
tp452
a(I0
g128
tp453
a(I1
g172
tp454
a(I2
g168
tp455
a(I3
g126
tp456
a(I0
g128
tp457
a(I1
g126
tp458
a(I2
g126
tp459
a(I3
g128
tp460
a(I0
g128
tp461
a(I1
g126
tp462
a(I2
g126
tp463
a(I3
g128
tp464
a(I0
g128
tp465
a(I1
g168
tp466
a(I2
g172
tp467
a(I3
g128
tp468
a(I0
g128
tp469
a(I1
g168
tp470
a(I2
g172
tp471
a(I3
g128
tp472
a(I0
g128
tp473
a(I1
g168
tp474
a(I2
g172
tp475
a(I3
g128
tp476
a(I0
g128
tp477
a(I1
g126
tp478
a(I2
g168
tp479
a(I3
g128
tp480
a(I0
g168
tp481
a(I1
g168
tp482
a(I2
g168
tp483
a(I3
g128
tp484
a(I0
g168
tp485
a(I1
g168
tp486
a(I2
g168
tp487
a(I3
g128
tp488
a(I0
g168
tp489
a(I1
g168
tp490
a(I2
g168
tp491
a(I3
g128
tp492
a(I0
g126
tp493
a(I1
g168
tp494
a(I2
g168
tp495
a(I3
g168
tp496
a(I0
g126
tp497
a(I1
g168
tp498
a(I2
g168
tp499
a(I3
g168
tp500
a(I0
g126
tp501
a(I1
g168
tp502
a(I2
g168
tp503
a(I3
g126
tp504
a(I0
g126
tp505
a(I1
g168
tp506
a(I2
g168
tp507
a(I3
g168
tp508
a(I0
g126
tp509
a(I1
g126
tp510
a(I2
g172
tp511
a(I3
g126
tp512
a(I0
g126
tp513
a(I1
g168
tp514
a(I2
g172
tp515
a(I3
g126
tp516
a(I0
g168
tp517
a(I1
g168
tp518
a(I2
g172
tp519
a(I3
g126
tp520
a(I0
g168
tp521
a(I1
g128
tp522
a(I2
g172
tp523
a(I3
g126
tp524
a(I0
g128
tp525
a(I1
g128
tp526
a(I2
g172
tp527
a(I3
g126
tp528
a(I0
g128
tp529
a(I1
g126
tp530
a(I2
g128
tp531
a(I3
g172
tp532
a(I0
g128
tp533
a(I1
g126
tp534
a(I2
g128
tp535
a(I3
g168
tp536
a(I0
g128
tp537
a(I1
g126
tp538
a(I2
g172
tp539
a(I3
g126
tp540
a(I0
g128
tp541
a(I1
g126
tp542
a(I2
g128
tp543
a(I3
g126
tp544
a(I0
g128
tp545
a(I1
g126
tp546
a(I2
g128
tp547
a(I3
g126
tp548
a(I0
g128
tp549
a(I1
g126
tp550
a(I2
g128
tp551
a(I3
g168
tp552
a(I0
g128
tp553
a(I1
g128
tp554
a(I2
g128
tp555
a(I3
g168
tp556
a(I0
g128
tp557
a(I1
g128
tp558
a(I2
g128
tp559
a(I3
g128
tp560
a(I0
g126
tp561
a(I1
g128
tp562
a(I2
g128
tp563
a(I3
g168
tp564
a(I0
g126
tp565
a(I1
g128
tp566
a(I2
g168
tp567
a(I3
g168
tp568
a(I0
g126
tp569
a(I1
g172
tp570
a(I2
g172
tp571
a(I3
g168
tp572
a(I0
g126
tp573
a(I1
g172
tp574
a(I2
g128
tp575
a(I3
g128
tp576
a(I0
g126
tp577
a(I1
g126
tp578
a(I2
g128
tp579
a(I3
g128
tp580
a(I0
g126
tp581
a(I1
g126
tp582
a(I2
g128
tp583
a(I3
g128
tp584
a(I0
g126
tp585
a(I1
g126
tp586
a(I2
g168
tp587
asS'length'
p588
I1200
sS'agents'
p589
(lp590
(igame
Agent
p591
(dp592
S'index'
p593
I0
sba(igame
Agent
p594
(dp595
g593
I0
sba(igame
Agent
p596
(dp597
g593
I0
sba(igame
Agent
p598
(dp599
g593
I0
sbasS'redTeamName'
p600
S'ENIAC'
p601
s.