(dp1
S'layout'
p2
(ilayout
Layout
p3
(dp4
S'capsules'
p5
(lp6
(I23
I4
tp7
a(I12
I7
tp8
a(I21
I10
tp9
a(I10
I13
tp10
asS'numGhosts'
p11
I4
sS'food'
p12
(igame
Grid
p13
(dp14
S'CELLS_PER_INT'
p15
I30
sS'width'
p16
I34
sS'data'
p17
(lp18
(lp19
I00
aI00
aI00
aI00
aI00
aI00
aI00
aI00
aI00
aI00
aI00
aI00
aI00
aI00
aI00
aI00
aI00
aI00
aa(lp20
I00
aI00
aI00
aI00
aI00
aI00
aI00
aI00
aI00
aI00
aI00
aI00
aI00
aI00
aI00
aI00
aI00
aI00
aa(lp21
I00
aI00
aI00
aI00
aI00
aI00
aI00
aI00
aI00
aI00
aI00
aI00
aI00
aI00
aI00
aI00
aI00
aI00
aa(lp22
I00
aI00
aI00
aI00
aI00
aI00
aI00
aI00
aI00
aI00
aI00
aI01
aI00
aI01
aI00
aI00
aI00
aI00
aa(lp23
I00
aI00
aI00
aI00
aI00
aI00
aI00
aI00
aI00
aI00
aI00
aI00
aI01
aI01
aI00
aI00
aI00
aI00
aa(lp24
I00
aI00
aI00
aI00
aI00
aI00
aI00
aI00
aI00
aI00
aI00
aI00
aI00
aI01
aI00
aI00
aI00
aI00
aa(lp25
I00
aI01
aI00
aI00
aI00
aI00
aI00
aI00
aI00
aI00
aI00
aI00
aI00
aI01
aI00
aI00
aI01
aI00
aa(lp26
I00
aI00
aI00
aI00
aI00
aI00
aI00
aI00
aI00
aI00
aI00
aI01
aI00
aI00
aI00
aI00
aI00
aI00
aa(lp27
I00
aI00
aI00
aI00
aI00
aI01
aI01
aI00
aI00
aI01
aI00
aI01
aI00
aI01
aI00
aI00
aI01
aI00
aa(lp28
I00
aI00
aI01
aI01
aI00
aI00
aI00
aI00
aI00
aI01
aI00
aI00
aI00
aI00
aI00
aI00
aI00
aI00
aa(lp29
I00
aI00
aI00
aI01
aI00
aI01
aI00
aI00
aI00
aI00
aI00
aI00
aI00
aI00
aI00
aI00
aI01
aI00
aa(lp30
I00
aI00
aI00
aI01
aI00
aI00
aI00
aI00
aI00
aI00
aI00
aI00
aI00
aI00
aI01
aI00
aI00
aI00
aa(lp31
I00
aI00
aI00
aI00
aI00
aI00
aI00
aI00
aI00
aI01
aI00
aI00
aI00
aI00
aI00
aI00
aI00
aI00
aa(lp32
I00
aI00
aI00
aI00
aI00
aI00
aI00
aI00
aI00
aI00
aI00
aI00
aI00
aI00
aI00
aI00
aI00
aI00
aa(lp33
I00
aI00
aI00
aI00
aI00
aI01
aI01
aI01
aI00
aI01
aI00
aI00
aI00
aI01
aI00
aI00
aI01
aI00
aa(lp34
I00
aI00
aI00
aI00
aI00
aI00
aI00
aI00
aI00
aI00
aI00
aI00
aI00
aI00
aI00
aI00
aI00
aI00
aa(lp35
I00
aI00
aI00
aI00
aI00
aI00
aI00
aI00
aI00
aI00
aI00
aI00
aI00
aI00
aI00
aI00
aI00
aI00
aa(lp36
I00
aI00
aI00
aI00
aI00
aI00
aI00
aI00
aI00
aI00
aI00
aI00
aI00
aI00
aI00
aI00
aI00
aI00
aa(lp37
I00
aI00
aI00
aI00
aI00
aI00
aI00
aI00
aI00
aI00
aI00
aI00
aI00
aI00
aI00
aI00
aI00
aI00
aa(lp38
I00
aI01
aI00
aI00
aI01
aI00
aI00
aI00
aI01
aI00
aI01
aI01
aI01
aI00
aI00
aI00
aI00
aI00
aa(lp39
I00
aI00
aI00
aI00
aI00
aI00
aI00
aI00
aI00
aI00
aI00
aI00
aI00
aI00
aI00
aI00
aI00
aI00
aa(lp40
I00
aI00
aI00
aI00
aI00
aI00
aI00
aI00
aI01
aI00
aI00
aI00
aI00
aI00
aI00
aI00
aI00
aI00
aa(lp41
I00
aI00
aI00
aI01
aI00
aI00
aI00
aI00
aI00
aI00
aI00
aI00
aI00
aI00
aI01
aI00
aI00
aI00
aa(lp42
I00
aI01
aI00
aI00
aI00
aI00
aI00
aI00
aI00
aI00
aI00
aI00
aI01
aI00
aI01
aI00
aI00
aI00
aa(lp43
I00
aI00
aI00
aI00
aI00
aI00
aI00
aI00
aI01
aI00
aI00
aI00
aI00
aI00
aI01
aI01
aI00
aI00
aa(lp44
I00
aI01
aI00
aI00
aI01
aI00
aI01
aI00
aI01
aI00
aI00
aI01
aI01
aI00
aI00
aI00
aI00
aI00
aa(lp45
I00
aI00
aI00
aI00
aI00
aI00
aI01
aI00
aI00
aI00
aI00
aI00
aI00
aI00
aI00
aI00
aI00
aI00
aa(lp46
I00
aI01
aI00
aI00
aI01
aI00
aI00
aI00
aI00
aI00
aI00
aI00
aI00
aI00
aI00
aI00
aI01
aI00
aa(lp47
I00
aI00
aI00
aI00
aI01
aI00
aI00
aI00
aI00
aI00
aI00
aI00
aI00
aI00
aI00
aI00
aI00
aI00
aa(lp48
I00
aI00
aI00
aI00
aI01
aI01
aI00
aI00
aI00
aI00
aI00
aI00
aI00
aI00
aI00
aI00
aI00
aI00
aa(lp49
I00
aI00
aI00
aI00
aI01
aI00
aI01
aI00
aI00
aI00
aI00
aI00
aI00
aI00
aI00
aI00
aI00
aI00
aa(lp50
I00
aI00
aI00
aI00
aI00
aI00
aI00
aI00
aI00
aI00
aI00
aI00
aI00
aI00
aI00
aI00
aI00
aI00
aa(lp51
I00
aI00
aI00
aI00
aI00
aI00
aI00
aI00
aI00
aI00
aI00
aI00
aI00
aI00
aI00
aI00
aI00
aI00
aa(lp52
I00
aI00
aI00
aI00
aI00
aI00
aI00
aI00
aI00
aI00
aI00
aI00
aI00
aI00
aI00
aI00
aI00
aI00
aasS'height'
p53
I18
sbsS'agentPositions'
p54
(lp55
(I00
(I1
I2
tp56
tp57
a(I00
(I32
I15
tp58
tp59
a(I00
(I1
I1
tp60
tp61
a(I00
(I32
I16
tp62
tp63
asg53
I18
sg16
I34
sS'walls'
p64
(igame
Grid
p65
(dp66
g15
I30
sg16
I34
sg17
(lp67
(lp68
I01
aI01
aI01
aI01
aI01
aI01
aI01
aI01
aI01
aI01
aI01
aI01
aI01
aI01
aI01
aI01
aI01
aI01
aa(lp69
I01
aI00
aI00
aI00
aI00
aI00
aI00
aI00
aI00
aI00
aI00
aI00
aI00
aI00
aI00
aI00
aI00
aI01
aa(lp70
I01
aI01
aI01
aI01
aI01
aI01
aI01
aI01
aI01
aI01
aI01
aI01
aI01
aI01
aI01
aI01
aI00
aI01
aa(lp71
I01
aI00
aI01
aI00
aI00
aI00
aI00
aI01
aI00
aI00
aI01
aI00
aI01
aI00
aI01
aI00
aI00
aI01
aa(lp72
I01
aI00
aI00
aI00
aI01
aI00
aI00
aI01
aI00
aI00
aI01
aI00
aI00
aI00
aI00
aI00
aI00
aI01
aa(lp73
I01
aI01
aI01
aI00
aI01
aI01
aI01
aI01
aI01
aI00
aI01
aI00
aI01
aI00
aI01
aI00
aI01
aI01
aa(lp74
I01
aI00
aI00
aI00
aI00
aI00
aI00
aI00
aI00
aI00
aI00
aI00
aI01
aI00
aI01
aI00
aI00
aI01
aa(lp75
I01
aI01
aI00
aI01
aI01
aI01
aI01
aI01
aI01
aI01
aI01
aI00
aI01
aI01
aI01
aI00
aI01
aI01
aa(lp76
I01
aI00
aI00
aI00
aI01
aI00
aI00
aI00
aI01
aI00
aI01
aI00
aI01
aI00
aI00
aI00
aI00
aI01
aa(lp77
I01
aI00
aI00
aI00
aI01
aI01
aI01
aI00
aI01
aI00
aI01
aI01
aI01
aI01
aI00
aI01
aI01
aI01
aa(lp78
I01
aI00
aI01
aI00
aI01
aI00
aI01
aI00
aI01
aI00
aI00
aI00
aI01
aI00
aI00
aI01
aI00
aI01
aa(lp79
I01
aI00
aI00
aI00
aI01
aI00
aI00
aI00
aI00
aI00
aI01
aI00
aI01
aI00
aI00
aI00
aI00
aI01
aa(lp80
I01
aI01
aI00
aI00
aI00
aI00
aI01
aI00
aI01
aI00
aI01
aI00
aI00
aI00
aI01
aI01
aI00
aI01
aa(lp81
I01
aI00
aI00
aI00
aI01
aI01
aI01
aI00
aI01
aI01
aI01
aI00
aI01
aI00
aI00
aI00
aI00
aI01
aa(lp82
I01
aI00
aI00
aI00
aI01
aI00
aI00
aI00
aI00
aI00
aI01
aI00
aI01
aI00
aI00
aI01
aI00
aI01
aa(lp83
I01
aI00
aI01
aI01
aI01
aI01
aI01
aI01
aI01
aI00
aI01
aI00
aI01
aI01
aI01
aI01
aI01
aI01
aa(lp84
I01
aI00
aI00
aI00
aI00
aI00
aI00
aI00
aI00
aI00
aI00
aI00
aI00
aI00
aI00
aI00
aI00
aI01
aa(lp85
I01
aI00
aI00
aI00
aI00
aI00
aI00
aI00
aI00
aI00
aI00
aI00
aI00
aI00
aI00
aI00
aI00
aI01
aa(lp86
I01
aI01
aI01
aI01
aI01
aI01
aI00
aI01
aI00
aI01
aI01
aI01
aI01
aI01
aI01
aI01
aI00
aI01
aa(lp87
I01
aI00
aI01
aI00
aI00
aI01
aI00
aI01
aI00
aI00
aI00
aI00
aI00
aI01
aI00
aI00
aI00
aI01
aa(lp88
I01
aI00
aI00
aI00
aI00
aI01
aI00
aI01
aI01
aI01
aI00
aI01
aI01
aI01
aI00
aI00
aI00
aI01
aa(lp89
I01
aI00
aI01
aI01
aI00
aI00
aI00
aI01
aI00
aI01
aI00
aI01
aI00
aI00
aI00
aI00
aI01
aI01
aa(lp90
I01
aI00
aI00
aI00
aI00
aI01
aI00
aI01
aI00
aI00
aI00
aI00
aI00
aI01
aI00
aI00
aI00
aI01
aa(lp91
I01
aI00
aI01
aI00
aI00
aI01
aI00
aI00
aI00
aI01
aI00
aI01
aI00
aI01
aI00
aI01
aI00
aI01
aa(lp92
I01
aI01
aI01
aI00
aI01
aI01
aI01
aI01
aI00
aI01
aI00
aI01
aI01
aI01
aI00
aI00
aI00
aI01
aa(lp93
I01
aI00
aI00
aI00
aI00
aI01
aI00
aI01
aI00
aI01
aI00
aI00
aI00
aI01
aI00
aI00
aI00
aI01
aa(lp94
I01
aI01
aI00
aI01
aI01
aI01
aI00
aI01
aI01
aI01
aI01
aI01
aI01
aI01
aI01
aI00
aI01
aI01
aa(lp95
I01
aI00
aI00
aI01
aI00
aI01
aI00
aI00
aI00
aI00
aI00
aI00
aI00
aI00
aI00
aI00
aI00
aI01
aa(lp96
I01
aI01
aI00
aI01
aI00
aI01
aI00
aI01
aI00
aI01
aI01
aI01
aI01
aI01
aI00
aI01
aI01
aI01
aa(lp97
I01
aI00
aI00
aI00
aI00
aI00
aI00
aI01
aI00
aI00
aI01
aI00
aI00
aI01
aI00
aI00
aI00
aI01
aa(lp98
I01
aI00
aI00
aI01
aI00
aI01
aI00
aI01
aI00
aI00
aI01
aI00
aI00
aI00
aI00
aI01
aI00
aI01
aa(lp99
I01
aI00
aI01
aI01
aI01
aI01
aI01
aI01
aI01
aI01
aI01
aI01
aI01
aI01
aI01
aI01
aI01
aI01
aa(lp100
I01
aI00
aI00
aI00
aI00
aI00
aI00
aI00
aI00
aI00
aI00
aI00
aI00
aI00
aI00
aI00
aI00
aI01
aa(lp101
I01
aI01
aI01
aI01
aI01
aI01
aI01
aI01
aI01
aI01
aI01
aI01
aI01
aI01
aI01
aI01
aI01
aI01
aasg53
I18
sbsS'layoutText'
p102
(lp103
S'%%%%%%%%%%%%%%%%%%%%%%%%%%%%%%%%%%'
p104
aS'%    %.%.%.   .%     %    %.%  %4%'
p105
aS'% %      %% % %%  %    %.   % %%2%'
p106
aS'% %% %%%   .%  %  %   ... %    % %'
p107
aS'% %....%.%o   .%  %%% %%%%% %% % %'
p108
aS'% %%.%%%%%%% %%%  %.%  .%.% %  % %'
p109
aS'% %.   ..%        %.%% %%.% %  % %'
p110
aS'% %%%% %%% %%%%%  %. o    % %%%% %'
p111
aS'% %    %..  .%.   % %% %%%% %  % %'
p112
aS'% %  % %%%% %% %   .%.  ..%    % %'
p113
aS'% %%%% %    o .%  %%%%% %%% %%%% %'
p114
aS'% %  % %.%% %%.%        %..   .% %'
p115
aS'% %  % %.%.  %.%  %%% %%%%%%%.%% %'
p116
aS'% % %% %%%%% %%%  %.   o%.%....% %'
p117
aS'% %    % ...   %  %  %.   %%% %% %'
p118
aS'%1%% %   .%    %  %% % %%      % %'
p119
aS'%3%  %.%    %     %.   .%.%.%    %'
p120
aS'%%%%%%%%%%%%%%%%%%%%%%%%%%%%%%%%%%'
p121
asbsS'blueTeamName'
p122
S'SoStupid'
p123
sS'actions'
p124
(lp125
(I0
S'North'
p126
tp127
a(I1
S'South'
p128
tp129
a(I2
g126
tp130
a(I3
g128
tp131
a(I0
g126
tp132
a(I1
g128
tp133
a(I2
g126
tp134
a(I3
g128
tp135
a(I0
g126
tp136
a(I1
g128
tp137
a(I2
g126
tp138
a(I3
g128
tp139
a(I0
g126
tp140
a(I1
g128
tp141
a(I2
g126
tp142
a(I3
g128
tp143
a(I0
g126
tp144
a(I1
g128
tp145
a(I2
g126
tp146
a(I3
g128
tp147
a(I0
g126
tp148
a(I1
g128
tp149
a(I2
g126
tp150
a(I3
g128
tp151
a(I0
g126
tp152
a(I1
g128
tp153
a(I2
g126
tp154
a(I3
g128
tp155
a(I0
g126
tp156
a(I1
g128
tp157
a(I2
g126
tp158
a(I3
g128
tp159
a(I0
g126
tp160
a(I1
g128
tp161
a(I2
g126
tp162
a(I3
g128
tp163
a(I0
g126
tp164
a(I1
g128
tp165
a(I2
g126
tp166
a(I3
g128
tp167
a(I0
g126
tp168
a(I1
g128
tp169
a(I2
g126
tp170
a(I3
g128
tp171
a(I0
g126
tp172
a(I1
g128
tp173
a(I2
g126
tp174
a(I3
g128
tp175
a(I0
g126
tp176
a(I1
g128
tp177
a(I2
g126
tp178
a(I3
g128
tp179
a(I0
g126
tp180
a(I1
g128
tp181
a(I2
g126
tp182
a(I3
g128
tp183
a(I0
S'East'
p184
tp185
a(I1
S'West'
p186
tp187
a(I2
g126
tp188
a(I3
g128
tp189
a(I0
g184
tp190
a(I1
g186
tp191
a(I2
g184
tp192
a(I3
g186
tp193
a(I0
g128
tp194
a(I1
g186
tp195
a(I2
g184
tp196
a(I3
g186
tp197
a(I0
g184
tp198
a(I1
g126
tp199
a(I2
g128
tp200
a(I3
g186
tp201
a(I0
g184
tp202
a(I1
g186
tp203
a(I2
g184
tp204
a(I3
g126
tp205
a(I0
g184
tp206
a(I1
g186
tp207
a(I2
g184
tp208
a(I3
g186
tp209
a(I0
g184
tp210
a(I1
g186
tp211
a(I2
g184
tp212
a(I3
g186
tp213
a(I0
g184
tp214
a(I1
g186
tp215
a(I2
g184
tp216
a(I3
g186
tp217
a(I0
g128
tp218
a(I1
g126
tp219
a(I2
g184
tp220
a(I3
g186
tp221
a(I0
g184
tp222
a(I1
g186
tp223
a(I2
g128
tp224
a(I3
g126
tp225
a(I0
g184
tp226
a(I1
g186
tp227
a(I2
g184
tp228
a(I3
g186
tp229
a(I0
g184
tp230
a(I1
g186
tp231
a(I2
g184
tp232
a(I3
g186
tp233
a(I0
g128
tp234
a(I1
g126
tp235
a(I2
g184
tp236
a(I3
g126
tp237
a(I0
g184
tp238
a(I1
g186
tp239
a(I2
g128
tp240
a(I3
g186
tp241
a(I0
g128
tp242
a(I1
g126
tp243
a(I2
g184
tp244
a(I3
g186
tp245
a(I0
g128
tp246
a(I1
g126
tp247
a(I2
g128
tp248
a(I3
g126
tp249
a(I0
g184
tp250
a(I1
g186
tp251
a(I2
g128
tp252
a(I3
g126
tp253
a(I0
g184
tp254
a(I1
g186
tp255
a(I2
g184
tp256
a(I3
g186
tp257
a(I0
g184
tp258
a(I1
g186
tp259
a(I2
g184
tp260
a(I3
g186
tp261
a(I0
g184
tp262
a(I1
g186
tp263
a(I2
g184
tp264
a(I3
g186
tp265
a(I0
g184
tp266
a(I1
g126
tp267
a(I2
g184
tp268
a(I3
g186
tp269
a(I0
g186
tp270
a(I1
g128
tp271
a(I2
g128
tp272
a(I3
g128
tp273
a(I0
g128
tp274
a(I1
g126
tp275
a(I2
g128
tp276
a(I3
g126
tp277
a(I0
g128
tp278
a(I1
g126
tp279
a(I2
g128
tp280
a(I3
g184
tp281
a(I0
g128
tp282
a(I1
g126
tp283
a(I2
S'Stop'
p284
tp285
a(I3
g186
tp286
a(I0
g126
tp287
a(I1
g126
tp288
a(I2
g126
tp289
a(I3
g184
tp290
a(I0
g126
tp291
a(I1
g186
tp292
a(I2
g126
tp293
a(I3
g186
tp294
a(I0
g128
tp295
a(I1
g128
tp296
a(I2
g128
tp297
a(I3
g184
tp298
a(I0
g128
tp299
a(I1
g128
tp300
a(I2
g128
tp301
a(I3
g186
tp302
a(I0
g128
tp303
a(I1
g128
tp304
a(I2
g128
tp305
a(I3
g184
tp306
a(I0
g128
tp307
a(I1
g128
tp308
a(I2
g128
tp309
a(I3
g184
tp310
a(I0
g284
tp311
a(I1
g128
tp312
a(I2
g284
tp313
a(I3
g186
tp314
a(I0
g284
tp315
a(I1
g128
tp316
a(I2
g284
tp317
a(I3
g186
tp318
a(I0
g284
tp319
a(I1
g128
tp320
a(I2
g284
tp321
a(I3
g126
tp322
a(I0
g126
tp323
a(I1
g128
tp324
a(I2
g126
tp325
a(I3
g186
tp326
a(I0
g284
tp327
a(I1
g128
tp328
a(I2
g184
tp329
a(I3
g128
tp330
a(I0
g184
tp331
a(I1
g128
tp332
a(I2
g126
tp333
a(I3
g128
tp334
a(I0
g126
tp335
a(I1
g128
tp336
a(I2
g184
tp337
a(I3
g128
tp338
a(I0
g184
tp339
a(I1
g128
tp340
a(I2
g184
tp341
a(I3
g128
tp342
a(I0
g184
tp343
a(I1
g128
tp344
a(I2
g126
tp345
a(I3
g128
tp346
a(I0
g126
tp347
a(I1
g128
tp348
a(I2
g126
tp349
a(I3
g128
tp350
a(I0
g126
tp351
a(I1
g186
tp352
a(I2
g126
tp353
a(I3
g128
tp354
a(I0
g126
tp355
a(I1
g186
tp356
a(I2
g126
tp357
a(I3
g128
tp358
a(I0
g128
tp359
a(I1
g186
tp360
a(I2
g128
tp361
a(I3
g128
tp362
a(I0
g184
tp363
a(I1
g126
tp364
a(I2
g128
tp365
a(I3
g128
tp366
a(I0
g184
tp367
a(I1
g186
tp368
a(I2
g184
tp369
a(I3
g128
tp370
a(I0
g184
tp371
a(I1
g186
tp372
a(I2
g184
tp373
a(I3
g128
tp374
a(I0
g126
tp375
a(I1
g186
tp376
a(I2
g184
tp377
a(I3
g128
tp378
a(I0
g126
tp379
a(I1
g186
tp380
a(I2
g128
tp381
a(I3
g128
tp382
a(I0
g184
tp383
a(I1
g126
tp384
a(I2
g128
tp385
a(I3
g128
tp386
a(I0
g186
tp387
a(I1
g186
tp388
a(I2
g186
tp389
a(I3
g186
tp390
a(I0
g186
tp391
a(I1
g186
tp392
a(I2
g184
tp393
a(I3
g186
tp394
a(I0
g126
tp395
a(I1
g126
tp396
a(I2
g184
tp397
a(I3
g126
tp398
a(I0
g126
tp399
a(I1
g186
tp400
a(I2
g184
tp401
a(I3
g186
tp402
a(I0
g184
tp403
a(I1
g186
tp404
a(I2
g184
tp405
a(I3
g186
tp406
a(I0
g184
tp407
a(I1
g126
tp408
a(I2
g186
tp409
a(I3
g186
tp410
a(I0
g184
tp411
a(I1
g126
tp412
a(I2
g184
tp413
a(I3
g186
tp414
a(I0
g126
tp415
a(I1
g186
tp416
a(I2
g186
tp417
a(I3
g186
tp418
a(I0
g184
tp419
a(I1
g186
tp420
a(I2
g186
tp421
a(I3
g126
tp422
a(I0
g184
tp423
a(I1
g186
tp424
a(I2
g128
tp425
a(I3
g186
tp426
a(I0
g184
tp427
a(I1
g186
tp428
a(I2
g128
tp429
a(I3
g186
tp430
a(I0
g126
tp431
a(I1
g126
tp432
a(I2
g186
tp433
a(I3
g126
tp434
a(I0
g128
tp435
a(I1
g126
tp436
a(I2
g186
tp437
a(I3
g186
tp438
a(I0
g128
tp439
a(I1
g126
tp440
a(I2
g184
tp441
a(I3
g186
tp442
a(I0
g128
tp443
a(I1
g186
tp444
a(I2
g184
tp445
a(I3
g126
tp446
a(I0
g128
tp447
a(I1
g186
tp448
a(I2
g126
tp449
a(I3
g126
tp450
a(I0
g128
tp451
a(I1
g186
tp452
a(I2
g126
tp453
a(I3
g186
tp454
a(I0
g128
tp455
a(I1
g128
tp456
a(I2
g186
tp457
a(I3
g186
tp458
a(I0
g128
tp459
a(I1
g128
tp460
a(I2
g126
tp461
a(I3
g186
tp462
a(I0
g128
tp463
a(I1
g128
tp464
a(I2
g126
tp465
a(I3
g186
tp466
a(I0
g128
tp467
a(I1
g128
tp468
a(I2
g184
tp469
a(I3
g186
tp470
a(I0
g128
tp471
a(I1
g126
tp472
a(I2
g184
tp473
a(I3
g128
tp474
a(I0
g186
tp475
a(I1
g126
tp476
a(I2
g184
tp477
a(I3
g128
tp478
a(I0
g186
tp479
a(I1
g186
tp480
a(I2
g126
tp481
a(I3
g128
tp482
a(I0
g184
tp483
a(I1
g186
tp484
a(I2
g126
tp485
a(I3
g128
tp486
a(I0
g184
tp487
a(I1
g186
tp488
a(I2
g128
tp489
a(I3
g128
tp490
a(I0
g184
tp491
a(I1
g126
tp492
a(I2
g128
tp493
a(I3
g186
tp494
a(I0
g184
tp495
a(I1
g126
tp496
a(I2
g186
tp497
a(I3
g186
tp498
a(I0
g128
tp499
a(I1
g184
tp500
a(I2
g186
tp501
a(I3
g186
tp502
a(I0
g128
tp503
a(I1
g186
tp504
a(I2
g186
tp505
a(I3
g126
tp506
a(I0
g186
tp507
a(I1
g186
tp508
a(I2
g128
tp509
a(I3
g186
tp510
a(I0
g186
tp511
a(I1
g186
tp512
a(I2
g128
tp513
a(I3
g126
tp514
a(I0
g184
tp515
a(I1
g186
tp516
a(I2
g184
tp517
a(I3
g186
tp518
a(I0
g184
tp519
a(I1
g184
tp520
a(I2
g128
tp521
a(I3
g186
tp522
a(I0
g184
tp523
a(I1
g184
tp524
a(I2
g128
tp525
a(I3
g186
tp526
a(I0
g186
tp527
a(I1
g184
tp528
a(I2
g186
tp529
a(I3
g128
tp530
a(I0
g126
tp531
a(I1
g128
tp532
a(I2
g186
tp533
a(I3
g186
tp534
a(I0
g126
tp535
a(I1
g128
tp536
a(I2
g128
tp537
a(I3
g186
tp538
a(I0
g184
tp539
a(I1
g128
tp540
a(I2
g128
tp541
a(I3
g186
tp542
a(I0
g186
tp543
a(I1
g128
tp544
a(I2
g184
tp545
a(I3
g128
tp546
a(I0
g128
tp547
a(I1
g186
tp548
a(I2
g128
tp549
a(I3
g126
tp550
a(I0
g128
tp551
a(I1
g184
tp552
a(I2
g128
tp553
a(I3
g126
tp554
a(I0
g128
tp555
a(I1
g126
tp556
a(I2
g128
tp557
a(I3
g126
tp558
a(I0
g128
tp559
a(I1
g126
tp560
a(I2
g184
tp561
a(I3
g126
tp562
a(I0
g186
tp563
a(I1
g186
tp564
a(I2
g186
tp565
a(I3
g126
tp566
a(I0
g186
tp567
a(I1
g186
tp568
a(I2
g186
tp569
a(I3
g126
tp570
a(I0
g128
tp571
a(I1
g186
tp572
a(I2
g186
tp573
a(I3
g126
tp574
a(I0
g126
tp575
a(I1
g128
tp576
a(I2
g186
tp577
a(I3
g126
tp578
a(I0
g186
tp579
a(I1
g128
tp580
a(I2
g184
tp581
a(I3
g126
tp582
a(I0
g186
tp583
a(I1
g126
tp584
a(I2
g126
tp585
a(I3
g126
tp586
a(I0
g128
tp587
asS'length'
p588
I1200
sS'agents'
p589
(lp590
(igame
Agent
p591
(dp592
S'index'
p593
I0
sba(igame
Agent
p594
(dp595
g593
I0
sba(igame
Agent
p596
(dp597
g593
I0
sba(igame
Agent
p598
(dp599
g593
I0
sbasS'redTeamName'
p600
S'Ava'
p601
s.