(dp1
S'layout'
p2
(ilayout
Layout
p3
(dp4
S'capsules'
p5
(lp6
(I23
I6
tp7
a(I24
I7
tp8
a(I9
I10
tp9
a(I10
I11
tp10
asS'numGhosts'
p11
I4
sS'food'
p12
(igame
Grid
p13
(dp14
S'CELLS_PER_INT'
p15
I30
sS'width'
p16
I34
sS'data'
p17
(lp18
(lp19
I00
aI00
aI00
aI00
aI00
aI00
aI00
aI00
aI00
aI00
aI00
aI00
aI00
aI00
aI00
aI00
aI00
aI00
aa(lp20
I00
aI00
aI00
aI00
aI00
aI00
aI00
aI00
aI00
aI00
aI00
aI00
aI00
aI00
aI00
aI00
aI00
aI00
aa(lp21
I00
aI00
aI00
aI00
aI00
aI00
aI00
aI00
aI00
aI00
aI00
aI00
aI00
aI00
aI00
aI00
aI00
aI00
aa(lp22
I00
aI00
aI00
aI00
aI00
aI01
aI00
aI00
aI00
aI00
aI01
aI00
aI00
aI00
aI01
aI00
aI00
aI00
aa(lp23
I00
aI00
aI00
aI00
aI00
aI00
aI00
aI01
aI00
aI00
aI01
aI00
aI00
aI00
aI01
aI00
aI00
aI00
aa(lp24
I00
aI00
aI00
aI00
aI00
aI00
aI00
aI00
aI00
aI00
aI00
aI00
aI01
aI00
aI00
aI00
aI00
aI00
aa(lp25
I00
aI01
aI00
aI01
aI00
aI00
aI00
aI01
aI00
aI00
aI00
aI00
aI00
aI00
aI00
aI00
aI00
aI00
aa(lp26
I00
aI01
aI00
aI01
aI01
aI01
aI00
aI00
aI01
aI00
aI01
aI00
aI01
aI00
aI01
aI00
aI00
aI00
aa(lp27
I00
aI00
aI00
aI00
aI00
aI00
aI00
aI00
aI00
aI00
aI00
aI00
aI00
aI00
aI00
aI00
aI00
aI00
aa(lp28
I00
aI01
aI00
aI00
aI00
aI00
aI00
aI00
aI00
aI00
aI00
aI00
aI00
aI00
aI00
aI00
aI00
aI00
aa(lp29
I00
aI00
aI01
aI00
aI01
aI01
aI00
aI01
aI00
aI00
aI00
aI00
aI00
aI00
aI00
aI00
aI00
aI00
aa(lp30
I00
aI00
aI00
aI01
aI00
aI00
aI00
aI00
aI00
aI00
aI00
aI00
aI00
aI00
aI00
aI00
aI00
aI00
aa(lp31
I00
aI01
aI00
aI00
aI00
aI00
aI00
aI00
aI00
aI00
aI01
aI01
aI00
aI01
aI01
aI00
aI00
aI00
aa(lp32
I00
aI00
aI00
aI00
aI00
aI00
aI00
aI00
aI00
aI00
aI00
aI00
aI00
aI00
aI00
aI00
aI00
aI00
aa(lp33
I00
aI00
aI00
aI00
aI00
aI00
aI00
aI00
aI00
aI00
aI00
aI00
aI00
aI00
aI00
aI00
aI01
aI00
aa(lp34
I00
aI00
aI00
aI00
aI00
aI00
aI00
aI00
aI00
aI00
aI00
aI00
aI00
aI00
aI00
aI00
aI00
aI00
aa(lp35
I00
aI00
aI00
aI00
aI00
aI00
aI00
aI00
aI00
aI00
aI00
aI00
aI00
aI00
aI00
aI00
aI00
aI00
aa(lp36
I00
aI00
aI00
aI00
aI00
aI00
aI00
aI00
aI00
aI00
aI00
aI00
aI00
aI00
aI00
aI00
aI00
aI00
aa(lp37
I00
aI00
aI00
aI00
aI00
aI00
aI00
aI00
aI00
aI00
aI00
aI00
aI00
aI00
aI00
aI00
aI00
aI00
aa(lp38
I00
aI01
aI00
aI00
aI00
aI00
aI00
aI00
aI00
aI00
aI00
aI00
aI00
aI00
aI00
aI00
aI00
aI00
aa(lp39
I00
aI00
aI00
aI00
aI00
aI00
aI00
aI00
aI00
aI00
aI00
aI00
aI00
aI00
aI00
aI00
aI00
aI00
aa(lp40
I00
aI00
aI00
aI01
aI01
aI00
aI01
aI01
aI00
aI00
aI00
aI00
aI00
aI00
aI00
aI00
aI01
aI00
aa(lp41
I00
aI00
aI00
aI00
aI00
aI00
aI00
aI00
aI00
aI00
aI00
aI00
aI00
aI00
aI01
aI00
aI00
aI00
aa(lp42
I00
aI00
aI00
aI00
aI00
aI00
aI00
aI00
aI00
aI00
aI01
aI00
aI01
aI01
aI00
aI01
aI00
aI00
aa(lp43
I00
aI00
aI00
aI00
aI00
aI00
aI00
aI00
aI00
aI00
aI00
aI00
aI00
aI00
aI00
aI00
aI01
aI00
aa(lp44
I00
aI00
aI00
aI00
aI00
aI00
aI00
aI00
aI00
aI00
aI00
aI00
aI00
aI00
aI00
aI00
aI00
aI00
aa(lp45
I00
aI00
aI00
aI01
aI00
aI01
aI00
aI01
aI00
aI01
aI00
aI00
aI01
aI01
aI01
aI00
aI01
aI00
aa(lp46
I00
aI00
aI00
aI00
aI00
aI00
aI00
aI00
aI00
aI00
aI01
aI00
aI00
aI00
aI01
aI00
aI01
aI00
aa(lp47
I00
aI00
aI00
aI00
aI00
aI01
aI00
aI00
aI00
aI00
aI00
aI00
aI00
aI00
aI00
aI00
aI00
aI00
aa(lp48
I00
aI00
aI00
aI01
aI00
aI00
aI00
aI01
aI00
aI00
aI01
aI00
aI00
aI00
aI00
aI00
aI00
aI00
aa(lp49
I00
aI00
aI00
aI01
aI00
aI00
aI00
aI01
aI00
aI00
aI00
aI00
aI01
aI00
aI00
aI00
aI00
aI00
aa(lp50
I00
aI00
aI00
aI00
aI00
aI00
aI00
aI00
aI00
aI00
aI00
aI00
aI00
aI00
aI00
aI00
aI00
aI00
aa(lp51
I00
aI00
aI00
aI00
aI00
aI00
aI00
aI00
aI00
aI00
aI00
aI00
aI00
aI00
aI00
aI00
aI00
aI00
aa(lp52
I00
aI00
aI00
aI00
aI00
aI00
aI00
aI00
aI00
aI00
aI00
aI00
aI00
aI00
aI00
aI00
aI00
aI00
aasS'height'
p53
I18
sbsS'agentPositions'
p54
(lp55
(I00
(I1
I2
tp56
tp57
a(I00
(I32
I15
tp58
tp59
a(I00
(I1
I1
tp60
tp61
a(I00
(I32
I16
tp62
tp63
asg53
I18
sg16
I34
sS'walls'
p64
(igame
Grid
p65
(dp66
g15
I30
sg16
I34
sg17
(lp67
(lp68
I01
aI01
aI01
aI01
aI01
aI01
aI01
aI01
aI01
aI01
aI01
aI01
aI01
aI01
aI01
aI01
aI01
aI01
aa(lp69
I01
aI00
aI00
aI00
aI00
aI00
aI00
aI00
aI00
aI00
aI00
aI00
aI00
aI00
aI00
aI00
aI00
aI01
aa(lp70
I01
aI01
aI01
aI01
aI01
aI01
aI01
aI01
aI01
aI01
aI01
aI01
aI01
aI01
aI01
aI01
aI00
aI01
aa(lp71
I01
aI00
aI01
aI00
aI01
aI00
aI00
aI00
aI01
aI00
aI00
aI00
aI00
aI01
aI00
aI01
aI00
aI01
aa(lp72
I01
aI00
aI01
aI00
aI00
aI00
aI01
aI00
aI00
aI00
aI00
aI01
aI00
aI01
aI00
aI01
aI00
aI01
aa(lp73
I01
aI00
aI00
aI00
aI01
aI01
aI01
aI01
aI01
aI01
aI01
aI01
aI00
aI01
aI00
aI01
aI00
aI01
aa(lp74
I01
aI00
aI01
aI00
aI01
aI00
aI00
aI00
aI00
aI00
aI00
aI00
aI00
aI01
aI00
aI00
aI00
aI01
aa(lp75
I01
aI00
aI01
aI00
aI00
aI00
aI00
aI01
aI00
aI01
aI00
aI01
aI00
aI01
aI00
aI01
aI00
aI01
aa(lp76
I01
aI01
aI01
aI01
aI01
aI00
aI01
aI01
aI01
aI01
aI01
aI01
aI01
aI01
aI01
aI01
aI00
aI01
aa(lp77
I01
aI00
aI00
aI00
aI00
aI00
aI00
aI00
aI00
aI00
aI00
aI00
aI00
aI00
aI00
aI01
aI00
aI01
aa(lp78
I01
aI00
aI00
aI00
aI00
aI00
aI00
aI00
aI00
aI00
aI00
aI00
aI00
aI00
aI00
aI00
aI00
aI01
aa(lp79
I01
aI00
aI01
aI00
aI01
aI01
aI01
aI01
aI01
aI00
aI01
aI01
aI01
aI01
aI01
aI01
aI01
aI01
aa(lp80
I01
aI00
aI00
aI00
aI00
aI01
aI00
aI00
aI00
aI00
aI00
aI00
aI01
aI00
aI00
aI00
aI00
aI01
aa(lp81
I01
aI00
aI01
aI01
aI00
aI00
aI00
aI00
aI01
aI01
aI01
aI01
aI01
aI01
aI01
aI01
aI00
aI01
aa(lp82
I01
aI00
aI00
aI00
aI00
aI01
aI00
aI00
aI00
aI00
aI00
aI00
aI00
aI00
aI00
aI00
aI00
aI01
aa(lp83
I01
aI00
aI01
aI01
aI01
aI01
aI01
aI01
aI01
aI01
aI01
aI01
aI01
aI01
aI00
aI01
aI00
aI01
aa(lp84
I01
aI00
aI00
aI00
aI00
aI00
aI00
aI00
aI00
aI00
aI00
aI00
aI00
aI00
aI00
aI01
aI00
aI01
aa(lp85
I01
aI00
aI01
aI00
aI00
aI00
aI00
aI00
aI00
aI00
aI00
aI00
aI00
aI00
aI00
aI00
aI00
aI01
aa(lp86
I01
aI00
aI01
aI00
aI01
aI01
aI01
aI01
aI01
aI01
aI01
aI01
aI01
aI01
aI01
aI01
aI00
aI01
aa(lp87
I01
aI00
aI00
aI00
aI00
aI00
aI00
aI00
aI00
aI00
aI00
aI00
aI01
aI00
aI00
aI00
aI00
aI01
aa(lp88
I01
aI00
aI01
aI01
aI01
aI01
aI01
aI01
aI01
aI01
aI00
aI00
aI00
aI00
aI01
aI01
aI00
aI01
aa(lp89
I01
aI00
aI00
aI00
aI00
aI01
aI00
aI00
aI00
aI00
aI00
aI00
aI01
aI00
aI00
aI00
aI00
aI01
aa(lp90
I01
aI01
aI01
aI01
aI01
aI01
aI01
aI01
aI00
aI01
aI01
aI01
aI01
aI01
aI00
aI01
aI00
aI01
aa(lp91
I01
aI00
aI00
aI00
aI00
aI00
aI00
aI00
aI00
aI00
aI00
aI00
aI00
aI00
aI00
aI00
aI00
aI01
aa(lp92
I01
aI00
aI01
aI00
aI00
aI00
aI00
aI00
aI00
aI00
aI00
aI00
aI00
aI00
aI00
aI00
aI00
aI01
aa(lp93
I01
aI00
aI01
aI01
aI01
aI01
aI01
aI01
aI01
aI01
aI01
aI01
aI00
aI01
aI01
aI01
aI01
aI01
aa(lp94
I01
aI00
aI01
aI00
aI01
aI00
aI01
aI00
aI01
aI00
aI01
aI00
aI00
aI00
aI00
aI01
aI00
aI01
aa(lp95
I01
aI00
aI00
aI00
aI01
aI00
aI00
aI00
aI00
aI00
aI00
aI00
aI00
aI01
aI00
aI01
aI00
aI01
aa(lp96
I01
aI00
aI01
aI00
aI01
aI00
aI01
aI01
aI01
aI01
aI01
aI01
aI01
aI01
aI00
aI00
aI00
aI01
aa(lp97
I01
aI00
aI01
aI00
aI01
aI00
aI01
aI00
aI00
aI00
aI00
aI01
aI00
aI00
aI00
aI01
aI00
aI01
aa(lp98
I01
aI00
aI01
aI00
aI01
aI00
aI00
aI00
aI00
aI01
aI00
aI00
aI00
aI01
aI00
aI01
aI00
aI01
aa(lp99
I01
aI00
aI01
aI01
aI01
aI01
aI01
aI01
aI01
aI01
aI01
aI01
aI01
aI01
aI01
aI01
aI01
aI01
aa(lp100
I01
aI00
aI00
aI00
aI00
aI00
aI00
aI00
aI00
aI00
aI00
aI00
aI00
aI00
aI00
aI00
aI00
aI01
aa(lp101
I01
aI01
aI01
aI01
aI01
aI01
aI01
aI01
aI01
aI01
aI01
aI01
aI01
aI01
aI01
aI01
aI01
aI01
aasg53
I18
sbsS'layoutText'
p102
(lp103
S'%%%%%%%%%%%%%%%%%%%%%%%%%%%%%%%%%%'
p104
aS'%          %  .      .  .%..   %4%'
p105
aS'% %%%% %%% % % %% % % %. %%% %%%2%'
p106
aS'% %..  .%  %.%    % % .  %..   % %'
p107
aS'% %%%%%%%  %.% %  %   %. %.%% %% %'
p108
aS'% %  . .%  %%% %  %% %%.  . % .% %'
p109
aS'% % %% %% o%.% %  %   %  %  %% % %'
p110
aS'% %..% .%o %.% %  %   %. %%.%. % %'
p111
aS'% %  % %%    % %  % % %  %. % %% %'
p112
aS'% %% % .%  % % %  % %    %% %  % %'
p113
aS'% % .%.%% .%   %  % %.% o%. %..% %'
p114
aS'% % %%  %  %   %  % %.%o %% %% % %'
p115
aS'% %. % .  .%% %%  % %%%  %. .  % %'
p116
aS'% %% %%.% .%   %  % %.%  %%%%%%% %'
p117
aS'% %   ..%  . % %    %.%  %.  ..% %'
p118
aS'%1%%% %%% .% % % %% % % %%% %%%% %'
p119
aS'%3%   ..%.  .      .  %          %'
p120
aS'%%%%%%%%%%%%%%%%%%%%%%%%%%%%%%%%%%'
p121
asbsS'blueTeamName'
p122
S'schwifty'
p123
sS'actions'
p124
(lp125
(I1
S'South'
p126
tp127
a(I2
S'North'
p128
tp129
a(I3
g126
tp130
a(I0
g128
tp131
a(I1
g126
tp132
a(I2
g128
tp133
a(I3
g126
tp134
a(I0
g128
tp135
a(I1
g126
tp136
a(I2
g128
tp137
a(I3
g126
tp138
a(I0
g128
tp139
a(I1
g126
tp140
a(I2
g128
tp141
a(I3
g126
tp142
a(I0
g128
tp143
a(I1
g126
tp144
a(I2
g128
tp145
a(I3
g126
tp146
a(I0
g128
tp147
a(I1
g126
tp148
a(I2
g128
tp149
a(I3
g126
tp150
a(I0
g128
tp151
a(I1
g126
tp152
a(I2
g128
tp153
a(I3
g126
tp154
a(I0
g128
tp155
a(I1
g126
tp156
a(I2
g128
tp157
a(I3
g126
tp158
a(I0
g128
tp159
a(I1
g126
tp160
a(I2
g128
tp161
a(I3
g126
tp162
a(I0
g128
tp163
a(I1
g126
tp164
a(I2
g128
tp165
a(I3
g126
tp166
a(I0
g128
tp167
a(I1
g126
tp168
a(I2
g128
tp169
a(I3
g126
tp170
a(I0
g128
tp171
a(I1
g126
tp172
a(I2
g128
tp173
a(I3
g126
tp174
a(I0
g128
tp175
a(I1
g126
tp176
a(I2
g128
tp177
a(I3
g126
tp178
a(I0
g128
tp179
a(I1
g126
tp180
a(I2
g128
tp181
a(I3
g126
tp182
a(I0
g128
tp183
a(I1
S'West'
p184
tp185
a(I2
g128
tp186
a(I3
g126
tp187
a(I0
S'East'
p188
tp189
a(I1
g184
tp190
a(I2
g188
tp191
a(I3
g184
tp192
a(I0
g188
tp193
a(I1
g184
tp194
a(I2
g188
tp195
a(I3
g184
tp196
a(I0
g188
tp197
a(I1
g184
tp198
a(I2
g188
tp199
a(I3
g184
tp200
a(I0
g188
tp201
a(I1
g184
tp202
a(I2
g188
tp203
a(I3
g184
tp204
a(I0
g188
tp205
a(I1
g184
tp206
a(I2
g188
tp207
a(I3
g184
tp208
a(I0
g188
tp209
a(I1
g184
tp210
a(I2
g188
tp211
a(I3
g184
tp212
a(I0
g188
tp213
a(I1
g184
tp214
a(I2
g188
tp215
a(I3
g184
tp216
a(I0
g188
tp217
a(I1
g184
tp218
a(I2
g188
tp219
a(I3
g184
tp220
a(I0
g188
tp221
a(I1
g128
tp222
a(I2
g188
tp223
a(I3
g184
tp224
a(I0
g126
tp225
a(I1
g128
tp226
a(I2
g126
tp227
a(I3
g128
tp228
a(I0
g126
tp229
a(I1
g128
tp230
a(I2
g126
tp231
a(I3
g128
tp232
a(I0
g126
tp233
a(I1
g128
tp234
a(I2
g126
tp235
a(I3
g128
tp236
a(I0
g126
tp237
a(I1
g128
tp238
a(I2
g126
tp239
a(I3
g128
tp240
a(I0
g126
tp241
a(I1
g128
tp242
a(I2
g126
tp243
a(I3
g128
tp244
a(I0
g126
tp245
a(I1
g128
tp246
a(I2
g126
tp247
a(I3
g128
tp248
a(I0
g126
tp249
a(I1
g184
tp250
a(I2
g126
tp251
a(I3
g128
tp252
a(I0
g188
tp253
a(I1
g184
tp254
a(I2
g126
tp255
a(I3
g128
tp256
a(I0
g188
tp257
a(I1
g128
tp258
a(I2
g126
tp259
a(I3
g128
tp260
a(I0
g126
tp261
a(I1
g128
tp262
a(I2
g126
tp263
a(I3
g128
tp264
a(I0
g126
tp265
a(I1
g184
tp266
a(I2
g126
tp267
a(I3
g128
tp268
a(I0
g188
tp269
a(I1
g128
tp270
a(I2
g126
tp271
a(I3
g188
tp272
a(I0
g188
tp273
a(I1
g128
tp274
a(I2
g126
tp275
a(I3
g126
tp276
a(I0
g128
tp277
a(I1
g128
tp278
a(I2
g188
tp279
a(I3
g184
tp280
a(I0
g128
tp281
a(I1
g184
tp282
a(I2
g188
tp283
a(I3
g128
tp284
a(I0
g128
tp285
a(I1
g128
tp286
a(I2
g126
tp287
a(I3
g188
tp288
a(I0
g128
tp289
a(I1
g128
tp290
a(I2
g126
tp291
a(I3
g126
tp292
a(I0
g128
tp293
a(I1
g128
tp294
a(I2
g188
tp295
a(I3
g184
tp296
a(I0
g128
tp297
a(I1
g184
tp298
a(I2
g188
tp299
a(I3
g128
tp300
a(I0
g128
tp301
a(I1
g184
tp302
a(I2
g188
tp303
a(I3
g188
tp304
a(I0
g188
tp305
a(I1
g184
tp306
a(I2
g188
tp307
a(I3
g126
tp308
a(I0
g188
tp309
a(I1
g184
tp310
a(I2
g188
tp311
a(I3
g184
tp312
a(I0
g184
tp313
a(I1
g184
tp314
a(I2
g188
tp315
a(I3
g128
tp316
a(I0
g184
tp317
a(I1
g184
tp318
a(I2
g188
tp319
a(I3
g188
tp320
a(I0
g128
tp321
a(I1
g184
tp322
a(I2
g188
tp323
a(I3
g188
tp324
a(I0
g128
tp325
a(I1
g126
tp326
a(I2
g188
tp327
a(I3
g188
tp328
a(I0
g184
tp329
a(I1
g126
tp330
a(I2
g128
tp331
a(I3
g188
tp332
a(I0
g184
tp333
a(I1
g126
tp334
a(I2
g128
tp335
a(I3
g126
tp336
a(I0
g126
tp337
a(I1
g128
tp338
a(I2
g128
tp339
a(I3
g184
tp340
a(I0
g126
tp341
a(I1
g126
tp342
a(I2
g126
tp343
a(I3
g128
tp344
a(I0
g128
tp345
a(I1
g126
tp346
a(I2
g126
tp347
a(I3
g184
tp348
a(I0
g128
tp349
a(I1
g126
tp350
a(I2
g126
tp351
a(I3
g184
tp352
a(I0
g188
tp353
a(I1
g126
tp354
a(I2
g184
tp355
a(I3
g184
tp356
a(I0
g188
tp357
a(I1
g126
tp358
a(I2
g184
tp359
a(I3
g126
tp360
a(I0
g126
tp361
a(I1
g126
tp362
a(I2
g128
tp363
a(I3
g188
tp364
a(I0
g126
tp365
a(I1
g126
tp366
a(I2
g128
tp367
a(I3
g128
tp368
a(I0
g188
tp369
a(I1
g126
tp370
a(I2
g128
tp371
a(I3
g188
tp372
a(I0
g188
tp373
a(I1
g126
tp374
a(I2
g128
tp375
a(I3
g188
tp376
a(I0
g188
tp377
a(I1
g126
tp378
a(I2
g128
tp379
a(I3
g126
tp380
a(I0
g128
tp381
a(I1
g126
tp382
a(I2
g128
tp383
a(I3
g188
tp384
a(I0
g128
tp385
a(I1
g126
tp386
a(I2
g128
tp387
a(I3
g128
tp388
a(I0
g188
tp389
a(I1
g126
tp390
a(I2
g128
tp391
a(I3
g184
tp392
a(I0
g188
tp393
a(I1
g126
tp394
a(I2
g128
tp395
a(I3
g184
tp396
a(I0
g188
tp397
a(I1
g184
tp398
a(I2
g188
tp399
a(I3
g184
tp400
a(I0
g188
tp401
a(I1
g184
tp402
a(I2
g188
tp403
a(I3
g184
tp404
a(I0
g188
tp405
a(I1
g184
tp406
a(I2
g126
tp407
a(I3
g128
tp408
a(I0
g188
tp409
a(I1
g184
tp410
a(I2
g126
tp411
a(I3
g128
tp412
a(I0
g126
tp413
a(I1
g184
tp414
a(I2
g126
tp415
a(I3
g128
tp416
a(I0
g128
tp417
a(I1
g184
tp418
a(I2
g126
tp419
a(I3
g188
tp420
a(I0
g128
tp421
a(I1
g184
tp422
a(I2
g128
tp423
a(I3
g126
tp424
a(I0
g128
tp425
a(I1
g184
tp426
a(I2
g128
tp427
a(I3
g126
tp428
a(I0
g128
tp429
a(I1
g184
tp430
a(I2
g188
tp431
a(I3
g126
tp432
a(I0
g128
tp433
a(I1
g128
tp434
a(I2
g188
tp435
a(I3
g184
tp436
a(I0
g128
tp437
a(I1
g128
tp438
a(I2
g188
tp439
a(I3
g126
tp440
a(I0
g128
tp441
a(I1
g128
tp442
a(I2
g126
tp443
a(I3
g188
tp444
a(I0
g128
tp445
a(I1
g128
tp446
a(I2
g184
tp447
a(I3
g126
tp448
a(I0
g128
tp449
a(I1
g128
tp450
a(I2
g126
tp451
a(I3
g184
tp452
a(I0
g128
tp453
a(I1
g126
tp454
a(I2
g128
tp455
a(I3
g126
tp456
a(I0
g128
tp457
a(I1
g126
tp458
a(I2
g128
tp459
a(I3
g188
tp460
a(I0
g128
tp461
a(I1
g126
tp462
a(I2
g128
tp463
a(I3
g128
tp464
a(I0
g128
tp465
a(I1
g126
tp466
a(I2
g128
tp467
a(I3
g128
tp468
a(I0
g128
tp469
a(I1
g126
tp470
a(I2
g128
tp471
a(I3
g128
tp472
a(I0
g188
tp473
a(I1
g126
tp474
a(I2
g128
tp475
a(I3
g188
tp476
a(I0
g188
tp477
a(I1
g126
tp478
a(I2
g128
tp479
a(I3
g184
tp480
a(I0
g188
tp481
a(I1
g126
tp482
a(I2
g128
tp483
a(I3
g184
tp484
a(I0
g188
tp485
a(I1
g126
tp486
a(I2
g184
tp487
a(I3
g128
tp488
a(I0
g188
tp489
a(I1
g126
tp490
a(I2
g188
tp491
a(I3
g188
tp492
a(I0
g188
tp493
a(I1
g126
tp494
a(I2
g128
tp495
a(I3
g128
tp496
a(I0
g188
tp497
a(I1
g126
tp498
a(I2
g188
tp499
a(I3
g184
tp500
a(I0
g188
tp501
a(I1
g126
tp502
a(I2
g128
tp503
a(I3
g128
tp504
a(I0
g188
tp505
a(I1
g126
tp506
a(I2
g126
tp507
a(I3
g128
tp508
a(I0
g126
tp509
a(I1
g184
tp510
a(I2
g126
tp511
a(I3
g188
tp512
a(I0
g126
tp513
a(I1
g184
tp514
a(I2
g126
tp515
a(I3
g126
tp516
a(I0
g126
tp517
a(I1
g184
tp518
a(I2
g126
tp519
a(I3
g126
tp520
a(I0
g126
tp521
a(I1
g184
tp522
a(I2
g188
tp523
a(I3
g126
tp524
a(I0
g126
tp525
a(I1
g184
tp526
a(I2
g188
tp527
a(I3
g126
tp528
a(I0
g126
tp529
a(I1
g184
tp530
a(I2
g128
tp531
a(I3
g188
tp532
a(I0
g126
tp533
a(I1
g184
tp534
a(I2
g128
tp535
a(I3
g188
tp536
a(I0
g188
tp537
a(I1
g184
tp538
a(I2
g188
tp539
a(I3
g128
tp540
a(I0
g188
tp541
a(I1
g184
tp542
a(I2
g188
tp543
a(I3
g128
tp544
a(I0
g126
tp545
a(I1
g128
tp546
a(I2
g128
tp547
a(I3
g188
tp548
a(I0
g126
tp549
a(I1
g128
tp550
a(I2
g128
tp551
a(I3
g188
tp552
a(I0
g188
tp553
a(I1
g128
tp554
a(I2
g184
tp555
a(I3
g128
tp556
a(I0
g188
tp557
a(I1
g128
tp558
a(I2
g184
tp559
a(I3
g128
tp560
a(I0
g128
tp561
a(I1
g128
tp562
a(I2
g188
tp563
a(I3
g188
tp564
a(I0
g128
tp565
a(I1
g128
tp566
a(I2
g188
tp567
a(I3
g188
tp568
a(I0
g128
tp569
a(I1
g128
tp570
a(I2
g126
tp571
a(I3
g184
tp572
a(I0
g128
tp573
a(I1
g184
tp574
a(I2
g126
tp575
a(I3
g184
tp576
a(I0
g128
tp577
a(I1
g184
tp578
a(I2
g188
tp579
a(I3
g126
tp580
a(I0
g128
tp581
a(I1
g128
tp582
a(I2
g126
tp583
a(I3
g126
tp584
a(I0
g128
tp585
a(I1
g128
tp586
a(I2
g126
tp587
a(I3
g188
tp588
a(I0
g188
tp589
a(I1
g184
tp590
a(I2
g188
tp591
a(I3
g126
tp592
a(I0
g188
tp593
a(I1
g184
tp594
a(I2
g126
tp595
a(I3
g126
tp596
a(I0
g188
tp597
a(I1
g126
tp598
a(I2
g126
tp599
a(I3
g188
tp600
a(I0
g128
tp601
a(I1
g126
tp602
a(I2
g184
tp603
a(I3
g126
tp604
a(I0
g128
tp605
a(I1
g126
tp606
a(I2
g126
tp607
a(I3
g126
tp608
a(I0
g188
tp609
a(I1
g126
tp610
a(I2
g126
tp611
a(I3
g184
tp612
a(I0
g188
tp613
a(I1
g126
tp614
a(I2
g126
tp615
a(I3
g126
tp616
a(I0
g188
tp617
a(I1
g126
tp618
a(I2
g188
tp619
a(I3
g126
tp620
a(I0
g188
tp621
a(I1
g126
tp622
a(I2
g126
tp623
a(I3
g126
tp624
a(I0
g126
tp625
a(I1
g126
tp626
a(I2
g126
tp627
a(I3
g188
tp628
a(I0
g126
tp629
a(I1
g126
tp630
a(I2
g184
tp631
a(I3
g126
tp632
a(I0
g188
tp633
a(I1
g184
tp634
a(I2
g184
tp635
a(I3
g126
tp636
a(I0
g188
tp637
a(I1
g184
tp638
a(I2
g184
tp639
a(I3
g184
tp640
a(I0
g126
tp641
a(I1
g184
tp642
a(I2
g184
tp643
a(I3
g184
tp644
a(I0
g188
tp645
a(I1
g184
tp646
a(I2
g188
tp647
a(I3
g184
tp648
a(I0
g126
tp649
a(I1
g184
tp650
a(I2
g128
tp651
a(I3
g128
tp652
a(I0
g188
tp653
a(I1
g184
tp654
a(I2
g128
tp655
a(I3
g128
tp656
a(I0
g188
tp657
a(I1
g184
tp658
a(I2
g128
tp659
a(I3
g128
tp660
a(I0
g188
tp661
a(I1
g128
tp662
a(I2
g128
tp663
a(I3
g128
tp664
a(I0
g126
tp665
a(I1
g128
tp666
a(I2
g128
tp667
a(I3
g128
tp668
a(I0
g184
tp669
a(I1
g184
tp670
a(I2
g128
tp671
a(I3
g128
tp672
a(I0
g128
tp673
a(I1
g184
tp674
a(I2
g128
tp675
a(I3
g184
tp676
a(I0
g188
tp677
a(I1
g128
tp678
a(I2
g128
tp679
a(I3
g128
tp680
a(I0
g126
tp681
a(I1
g128
tp682
a(I2
g128
tp683
a(I3
g188
tp684
a(I0
g126
tp685
a(I1
g128
tp686
a(I2
g128
tp687
a(I3
g126
tp688
a(I0
g126
tp689
a(I1
g128
tp690
a(I2
g128
tp691
a(I3
g126
tp692
a(I0
g184
tp693
a(I1
g184
tp694
a(I2
g128
tp695
a(I3
g126
tp696
a(I0
g188
tp697
a(I1
g126
tp698
a(I2
g128
tp699
a(I3
g128
tp700
a(I0
g128
tp701
a(I1
g126
tp702
a(I2
g128
tp703
a(I3
g128
tp704
a(I0
g128
tp705
a(I1
g184
tp706
a(I2
g128
tp707
a(I3
g128
tp708
a(I0
g128
tp709
a(I1
g184
tp710
a(I2
g188
tp711
a(I3
g184
tp712
a(I0
g128
tp713
a(I1
g126
tp714
a(I2
g188
tp715
a(I3
g184
tp716
a(I0
g128
tp717
a(I1
g126
tp718
a(I2
g188
tp719
a(I3
g184
tp720
a(I0
g128
tp721
a(I1
g184
tp722
a(I2
g188
tp723
a(I3
g126
tp724
a(I0
g128
tp725
a(I1
g184
tp726
a(I2
g188
tp727
a(I3
g184
tp728
a(I0
g128
tp729
a(I1
g126
tp730
a(I2
g188
tp731
a(I3
g126
tp732
a(I0
g128
tp733
a(I1
g126
tp734
a(I2
g188
tp735
a(I3
g126
tp736
a(I0
g128
tp737
a(I1
g188
tp738
a(I2
g188
tp739
a(I3
g126
tp740
a(I0
g128
tp741
a(I1
g188
tp742
a(I2
g188
tp743
a(I3
g126
tp744
a(I0
g128
tp745
a(I1
g184
tp746
a(I2
g126
tp747
a(I3
g126
tp748
a(I0
g128
tp749
a(I1
g184
tp750
a(I2
g126
tp751
a(I3
g126
tp752
a(I0
g128
tp753
a(I1
g128
tp754
a(I2
g126
tp755
a(I3
g126
tp756
a(I0
g188
tp757
a(I1
g128
tp758
a(I2
g126
tp759
a(I3
g126
tp760
a(I0
g188
tp761
a(I1
g184
tp762
a(I2
g126
tp763
a(I3
g126
tp764
a(I0
g188
tp765
a(I1
g128
tp766
a(I2
g126
tp767
a(I3
g126
tp768
a(I0
g188
tp769
a(I1
g128
tp770
a(I2
g126
tp771
a(I3
g188
tp772
a(I0
g188
tp773
a(I1
g184
tp774
a(I2
g188
tp775
a(I3
g188
tp776
a(I0
g188
tp777
a(I1
g128
tp778
a(I2
g188
tp779
a(I3
g188
tp780
a(I0
g188
tp781
a(I1
g128
tp782
a(I2
g126
tp783
a(I3
g188
tp784
a(I0
g188
tp785
a(I1
g188
tp786
a(I2
g126
tp787
a(I3
g128
tp788
a(I0
g188
tp789
a(I1
g128
tp790
a(I2
g188
tp791
a(I3
g128
tp792
a(I0
g126
tp793
a(I1
g128
tp794
a(I2
g126
tp795
a(I3
g188
tp796
a(I0
g126
tp797
a(I1
g128
tp798
a(I2
g126
tp799
a(I3
g188
tp800
a(I0
g126
tp801
a(I1
g184
tp802
a(I2
g126
tp803
a(I3
g188
tp804
a(I0
g126
tp805
a(I1
g128
tp806
a(I2
g188
tp807
a(I3
g184
tp808
a(I0
g126
tp809
a(I1
g128
tp810
a(I2
g126
tp811
a(I3
g184
tp812
a(I0
g126
tp813
a(I1
g188
tp814
a(I2
g126
tp815
a(I3
g184
tp816
a(I0
g126
tp817
a(I1
g188
tp818
a(I2
g126
tp819
a(I3
g126
tp820
a(I0
g188
tp821
a(I1
g188
tp822
a(I2
g188
tp823
a(I3
g126
tp824
a(I0
g188
tp825
a(I1
g188
tp826
a(I2
g188
tp827
a(I3
g184
tp828
a(I0
g126
tp829
a(I1
g184
tp830
a(I2
g128
tp831
a(I3
g184
tp832
a(I0
g126
tp833
a(I1
g126
tp834
a(I2
g128
tp835
a(I3
g184
tp836
a(I0
g188
tp837
a(I1
g126
tp838
a(I2
g188
tp839
a(I3
g184
tp840
a(I0
g188
tp841
a(I1
g188
tp842
a(I2
g188
tp843
a(I3
g128
tp844
a(I0
g128
tp845
a(I1
g184
tp846
a(I2
g188
tp847
a(I3
g128
tp848
a(I0
g128
tp849
a(I1
g126
tp850
a(I2
g128
tp851
a(I3
g128
tp852
a(I0
g128
tp853
a(I1
g126
tp854
a(I2
g128
tp855
a(I3
g128
tp856
a(I0
g128
tp857
a(I1
g126
tp858
a(I2
g128
tp859
a(I3
g128
tp860
a(I0
g128
tp861
a(I1
g128
tp862
a(I2
g128
tp863
a(I3
g128
tp864
a(I0
g128
tp865
a(I1
g188
tp866
a(I2
g128
tp867
a(I3
g128
tp868
a(I0
g128
tp869
a(I1
g184
tp870
a(I2
g128
tp871
a(I3
g184
tp872
a(I0
g188
tp873
a(I1
g126
tp874
a(I2
g128
tp875
a(I3
g184
tp876
a(I0
g188
tp877
a(I1
g126
tp878
a(I2
g188
tp879
a(I3
g128
tp880
a(I0
g188
tp881
a(I1
g126
tp882
a(I2
g128
tp883
a(I3
g128
tp884
a(I0
g128
tp885
a(I1
g188
tp886
a(I2
g128
tp887
a(I3
g128
tp888
a(I0
g128
tp889
a(I1
g188
tp890
a(I2
g128
tp891
a(I3
g184
tp892
a(I0
g188
tp893
a(I1
g188
tp894
a(I2
g188
tp895
a(I3
g128
tp896
a(I0
g188
tp897
a(I1
g188
tp898
a(I2
g128
tp899
a(I3
g128
tp900
a(I0
g188
tp901
a(I1
g126
tp902
a(I2
g188
tp903
a(I3
g188
tp904
a(I0
g188
tp905
a(I1
g126
tp906
a(I2
g188
tp907
a(I3
g128
tp908
a(I0
g188
tp909
a(I1
g126
tp910
a(I2
g188
tp911
a(I3
g188
tp912
a(I0
g188
tp913
a(I1
g184
tp914
a(I2
g126
tp915
a(I3
g188
tp916
a(I0
g126
tp917
a(I1
g126
tp918
a(I2
g126
tp919
a(I3
g128
tp920
a(I0
g128
tp921
a(I1
g128
tp922
a(I2
g188
tp923
a(I3
g126
tp924
a(I0
g128
tp925
a(I1
g128
tp926
a(I2
g188
tp927
a(I3
g126
tp928
a(I0
g128
tp929
a(I1
g128
tp930
a(I2
g126
tp931
a(I3
g126
tp932
a(I0
g128
tp933
a(I1
g128
tp934
a(I2
g188
tp935
a(I3
g188
tp936
a(I0
g128
tp937
a(I1
g128
tp938
a(I2
g126
tp939
a(I3
g188
tp940
a(I0
g128
tp941
a(I1
g128
tp942
a(I2
g126
tp943
a(I3
g188
tp944
a(I0
g128
tp945
a(I1
g128
tp946
a(I2
g126
tp947
a(I3
g188
tp948
a(I0
g128
tp949
a(I1
g128
tp950
a(I2
g126
tp951
a(I3
g126
tp952
a(I0
g128
tp953
a(I1
g188
tp954
a(I2
g184
tp955
a(I3
g126
tp956
a(I0
g128
tp957
a(I1
g188
tp958
a(I2
g188
tp959
a(I3
g126
tp960
a(I0
g128
tp961
a(I1
g188
tp962
a(I2
g128
tp963
a(I3
g126
tp964
a(I0
g128
tp965
a(I1
g128
tp966
a(I2
g128
tp967
a(I3
g128
tp968
a(I0
g128
tp969
a(I1
g128
tp970
a(I2
g128
tp971
a(I3
g128
tp972
a(I0
g128
tp973
a(I1
g126
tp974
a(I2
g128
tp975
a(I3
g128
tp976
a(I0
g188
tp977
a(I1
g126
tp978
a(I2
g128
tp979
a(I3
g184
tp980
a(I0
g188
tp981
a(I1
g184
tp982
a(I2
g128
tp983
a(I3
g128
tp984
a(I0
g188
tp985
a(I1
g184
tp986
a(I2
g128
tp987
a(I3
g184
tp988
a(I0
g188
tp989
a(I1
g128
tp990
a(I2
g128
tp991
a(I3
g184
tp992
a(I0
g188
tp993
a(I1
g128
tp994
a(I2
g128
tp995
a(I3
g126
tp996
a(I0
g188
tp997
a(I1
g128
tp998
a(I2
g128
tp999
a(I3
g184
tp1000
a(I0
g188
tp1001
a(I1
g128
tp1002
a(I2
g128
tp1003
a(I3
g126
tp1004
a(I0
g188
tp1005
a(I1
g128
tp1006
a(I2
g128
tp1007
a(I3
g126
tp1008
a(I0
g188
tp1009
a(I1
g128
tp1010
a(I2
g128
tp1011
a(I3
g126
tp1012
a(I0
S'Stop'
p1013
tp1014
a(I1
g128
tp1015
a(I2
g128
tp1016
a(I3
g126
tp1017
a(I0
g128
tp1018
a(I1
g184
tp1019
a(I2
g128
tp1020
a(I3
g126
tp1021
a(I0
g128
tp1022
a(I1
g184
tp1023
a(I2
g128
tp1024
a(I3
g126
tp1025
a(I0
g128
tp1026
a(I1
g184
tp1027
a(I2
g188
tp1028
a(I3
g126
tp1029
a(I0
g128
tp1030
a(I1
g184
tp1031
a(I2
g188
tp1032
a(I3
g126
tp1033
a(I0
g128
tp1034
a(I1
g184
tp1035
a(I2
g188
tp1036
a(I3
g126
tp1037
a(I0
g128
tp1038
a(I1
g184
tp1039
a(I2
g128
tp1040
a(I3
g126
tp1041
a(I0
g128
tp1042
a(I1
g188
tp1043
a(I2
g128
tp1044
a(I3
g188
tp1045
a(I0
g128
tp1046
a(I1
g188
tp1047
a(I2
g128
tp1048
a(I3
g188
tp1049
a(I0
g128
tp1050
a(I1
g126
tp1051
a(I2
g128
tp1052
a(I3
g188
tp1053
a(I0
g128
tp1054
a(I1
g126
tp1055
a(I2
g128
tp1056
a(I3
g188
tp1057
a(I0
g128
tp1058
a(I1
g188
tp1059
asS'length'
p1060
I1200
sS'agents'
p1061
(lp1062
(igame
Agent
p1063
(dp1064
S'index'
p1065
I0
sba(igame
Agent
p1066
(dp1067
g1065
I0
sba(igame
Agent
p1068
(dp1069
g1065
I0
sba(igame
Agent
p1070
(dp1071
g1065
I0
sbasS'redTeamName'
p1072
S'SoStupid'
p1073
s.